
FreeRTOS_OneCPU.elf:     file format elf32-littlenios2
FreeRTOS_OneCPU.elf
architecture: nios2:r1, flags 0x00000112:
EXEC_P, HAS_SYMS, D_PAGED
start address 0x010003a0

Program Header:
    LOAD off    0x00001000 vaddr 0x01000000 paddr 0x01000000 align 2**12
         filesz 0x00000020 memsz 0x00000020 flags r-x
    LOAD off    0x00001020 vaddr 0x01000020 paddr 0x01000020 align 2**12
         filesz 0x0001b164 memsz 0x0001b164 flags r-x
    LOAD off    0x0001c184 vaddr 0x0101b184 paddr 0x0101cd4c align 2**12
         filesz 0x00001bc8 memsz 0x00001bc8 flags rw-
    LOAD off    0x0001e914 vaddr 0x0101e914 paddr 0x0101e914 align 2**12
         filesz 0x00000000 memsz 0x0080051c flags rw-

Sections:
Idx Name          Size      VMA       LMA       File off  Algn
  0 .entry        00000020  01000000  01000000  00001000  2**5
                  CONTENTS, ALLOC, LOAD, READONLY, CODE
  1 .exceptions   00000380  01000020  01000020  00001020  2**2
                  CONTENTS, ALLOC, LOAD, READONLY, CODE
  2 .text         0001a0b4  010003a0  010003a0  000013a0  2**2
                  CONTENTS, ALLOC, LOAD, READONLY, CODE
  3 .rodata       00000d30  0101a454  0101a454  0001b454  2**2
                  CONTENTS, ALLOC, LOAD, READONLY, DATA
  4 .rwdata       00001bc8  0101b184  0101cd4c  0001c184  2**2
                  CONTENTS, ALLOC, LOAD, DATA, SMALL_DATA
  5 .bss          008005a2  0101e914  0101e914  0001e914  2**2
                  ALLOC, SMALL_DATA
  6 .sdram        00000000  0181ee30  0181ee30  0001dd4c  2**0
                  CONTENTS
  7 .comment      00000023  00000000  00000000  0001dd4c  2**0
                  CONTENTS, READONLY
  8 .debug_aranges 000014f8  00000000  00000000  0001dd70  2**3
                  CONTENTS, READONLY, DEBUGGING
  9 .debug_info   0003199c  00000000  00000000  0001f268  2**0
                  CONTENTS, READONLY, DEBUGGING
 10 .debug_abbrev 0000c918  00000000  00000000  00050c04  2**0
                  CONTENTS, READONLY, DEBUGGING
 11 .debug_line   00010a25  00000000  00000000  0005d51c  2**0
                  CONTENTS, READONLY, DEBUGGING
 12 .debug_frame  00004ac4  00000000  00000000  0006df44  2**2
                  CONTENTS, READONLY, DEBUGGING
 13 .debug_str    0000641f  00000000  00000000  00072a08  2**0
                  CONTENTS, READONLY, DEBUGGING
 14 .debug_loc    0001a3f5  00000000  00000000  00078e27  2**0
                  CONTENTS, READONLY, DEBUGGING
 15 .debug_alt_sim_info 00000060  00000000  00000000  0009321c  2**2
                  CONTENTS, READONLY, DEBUGGING
 16 .debug_ranges 00001a70  00000000  00000000  00093280  2**3
                  CONTENTS, READONLY, DEBUGGING
 17 .thread_model 00000003  00000000  00000000  0009ac3a  2**0
                  CONTENTS, READONLY
 18 .cpu          0000000a  00000000  00000000  0009ac3d  2**0
                  CONTENTS, READONLY
 19 .qsys         00000001  00000000  00000000  0009ac47  2**0
                  CONTENTS, READONLY
 20 .simulation_enabled 00000001  00000000  00000000  0009ac48  2**0
                  CONTENTS, READONLY
 21 .stderr_dev   0000000b  00000000  00000000  0009ac49  2**0
                  CONTENTS, READONLY
 22 .stdin_dev    0000000b  00000000  00000000  0009ac54  2**0
                  CONTENTS, READONLY
 23 .stdout_dev   0000000b  00000000  00000000  0009ac5f  2**0
                  CONTENTS, READONLY
 24 .sopc_system_name 0000000c  00000000  00000000  0009ac6a  2**0
                  CONTENTS, READONLY
 25 .quartus_project_dir 0000001c  00000000  00000000  0009ac76  2**0
                  CONTENTS, READONLY
 26 .jdi          0000494a  00000000  00000000  0009ac92  2**0
                  CONTENTS, READONLY
 27 .sopcinfo     0027948b  00000000  00000000  0009f5dc  2**0
                  CONTENTS, READONLY
SYMBOL TABLE:
01000000 l    d  .entry	00000000 .entry
01000020 l    d  .exceptions	00000000 .exceptions
010003a0 l    d  .text	00000000 .text
0101a454 l    d  .rodata	00000000 .rodata
0101b184 l    d  .rwdata	00000000 .rwdata
0101e914 l    d  .bss	00000000 .bss
0181ee30 l    d  .sdram	00000000 .sdram
00000000 l    d  .comment	00000000 .comment
00000000 l    d  .debug_aranges	00000000 .debug_aranges
00000000 l    d  .debug_info	00000000 .debug_info
00000000 l    d  .debug_abbrev	00000000 .debug_abbrev
00000000 l    d  .debug_line	00000000 .debug_line
00000000 l    d  .debug_frame	00000000 .debug_frame
00000000 l    d  .debug_str	00000000 .debug_str
00000000 l    d  .debug_loc	00000000 .debug_loc
00000000 l    d  .debug_alt_sim_info	00000000 .debug_alt_sim_info
00000000 l    d  .debug_ranges	00000000 .debug_ranges
00000000 l    df *ABS*	00000000 ../FreeRTOS_OneCPU_bsp//obj/HAL/src/crt0.o
010003e8 l       .text	00000000 alt_after_alt_main
00000000 l    df *ABS*	00000000 obj/default/Source/portable/GCC/NiosII/port_asm.o
01000020 l       .exceptions	00000000 save_context
0100009c l       .exceptions	00000000 save_sp_to_pxCurrentTCB
01000100 l       .exceptions	00000000 hw_irq_test
010001c4 l       .exceptions	00000000 soft_exceptions
01000124 l       .exceptions	00000000 hw_irq_handler
0100013c l       .exceptions	00000000 restore_context
010001e0 l       .exceptions	00000000 call_scheduler
00000000 l    df *ABS*	00000000 alt_irq_handler.c
00000000 l    df *ABS*	00000000 alt_instruction_exception_entry.c
00000000 l    df *ABS*	00000000 croutine.c
00000000 l    df *ABS*	00000000 event_groups.c
01000a7c l     F .text	00000070 prvTestWaitCondition
00000000 l    df *ABS*	00000000 list.c
00000000 l    df *ABS*	00000000 port.c
01000d7c l     F .text	0000002c prvReadGp
01000ee0 l     F .text	00000088 prvSetupTimerInterrupt
00000000 l    df *ABS*	00000000 heap_2.c
0101e9a0 l     O .bss	00800000 ucHeap
0101ccdc l     O .rwdata	00000002 heapSTRUCT_SIZE
0101e914 l     O .bss	00000008 xStart
0101e91c l     O .bss	00000008 xEnd
0101cce0 l     O .rwdata	00000004 xFreeBytesRemaining
0101e924 l     O .bss	00000004 xHeapHasBeenInitialised.2596
01001290 l     F .text	00000074 prvHeapInit
00000000 l    df *ABS*	00000000 queue.c
010014c0 l     F .text	00000084 prvInitialiseNewQueue
01001544 l     F .text	00000060 prvInitialiseMutex
0100231c l     F .text	0000018c prvCopyDataToQueue
010026d0 l     F .text	00000058 prvIsQueueFull
01002544 l     F .text	000000f4 prvUnlockQueue
010024a8 l     F .text	0000009c prvCopyDataFromQueue
01002638 l     F .text	00000050 prvIsQueueEmpty
010022cc l     F .text	00000050 prvGetDisinheritPriorityAfterTimeout
00000000 l    df *ABS*	00000000 stream_buffer.c
0100359c l     F .text	00000080 prvInitialiseNewStreamBuffer
01003528 l     F .text	00000074 prvBytesInBuffer
01002cd0 l     F .text	000000d4 prvWriteMessageToBuffer
01003320 l     F .text	000000f4 prvWriteBytesToBuffer
01003088 l     F .text	000000bc prvReadMessageFromBuffer
01003414 l     F .text	00000114 prvReadBytesFromBuffer
00000000 l    df *ABS*	00000000 tasks.c
0181e9a0 l     O .bss	00000064 pxReadyTasksLists
0181ea04 l     O .bss	00000014 xDelayedTaskList1
0181ea18 l     O .bss	00000014 xDelayedTaskList2
0101e92c l     O .bss	00000004 pxDelayedTaskList
0101e930 l     O .bss	00000004 pxOverflowDelayedTaskList
0181ea2c l     O .bss	00000014 xPendingReadyList
0181ea40 l     O .bss	00000014 xTasksWaitingTermination
0101e934 l     O .bss	00000004 uxDeletedTasksWaitingCleanUp
0181ea54 l     O .bss	00000014 xSuspendedTaskList
0101e938 l     O .bss	00000004 uxCurrentNumberOfTasks
0101e93c l     O .bss	00000004 xTickCount
0101e940 l     O .bss	00000004 uxTopReadyPriority
0101e944 l     O .bss	00000004 xSchedulerRunning
0101e948 l     O .bss	00000004 uxPendedTicks
0101e94c l     O .bss	00000004 xYieldPending
0101e950 l     O .bss	00000004 xNumOfOverflows
0101e954 l     O .bss	00000004 uxTaskNumber
0101e958 l     O .bss	00000004 xNextTaskUnblockTime
0101e95c l     O .bss	00000004 xIdleTaskHandle
0101e960 l     O .bss	00000004 uxSchedulerSuspended
01003704 l     F .text	000001e4 prvInitialiseNewTask
010038e8 l     F .text	000000fc prvAddNewTaskToReadyList
01004c38 l     F .text	000000b8 prvInitialiseTaskLists
01004e34 l     F .text	00000044 prvDeleteTCB
01004e78 l     F .text	00000054 prvResetNextTaskUnblockTime
01005a6c l     F .text	000000e8 prvAddCurrentTaskToDelayedList
0100406c l     F .text	0000006c prvTaskIsTaskSuspended
01004c1c l     F .text	0000001c prvIdleTask
01004cf0 l     F .text	00000080 prvCheckTasksWaitingTermination
01004d70 l     F .text	00000064 prvTaskCheckFreeStackSpace
00000000 l    df *ABS*	00000000 timers.c
00000000 l    df *ABS*	00000000 hello_world.c
00000000 l    df *ABS*	00000000 metal-test.c
01005b88 l     F .text	00000064 metal_list_add_before
01005bec l     F .text	0000003c metal_list_add_tail
0101cce4 l     O .rwdata	00000008 test_cases
00000000 l    df *ABS*	00000000 device.c
01005e84 l     F .text	00000040 metal_list_init
01005ec4 l     F .text	00000064 metal_list_add_before
01005f28 l     F .text	0000003c metal_list_add_tail
01005f64 l     F .text	00000068 metal_list_del
01005fcc l     F .text	0000003c __metal_cache_flush
01006008 l     F .text	0000003c __metal_cache_invalidate
01006044 l     F .text	0000003c metal_cache_flush
01006080 l     F .text	0000003c metal_cache_invalidate
0101a538 l     O .rodata	00000013 __func__.2760
00000000 l    df *ABS*	00000000 dma.c
00000000 l    df *ABS*	00000000 alloc.c
01006880 l     F .text	00000030 metal_allocate_memory
010068b0 l     F .text	00000034 metal_free_memory
0101ccec l     O .rwdata	00000004 test_count
010068e4 l     F .text	000000b8 alloc_thread
0100699c l     F .text	00000048 alloc
010069e4 l     F .text	00000034 metal_test_alloc
0101b1b0 l     O .rwdata	00000010 metal_test_alloc.2863
00000000 l    df *ABS*	00000000 atomic.c
0101ccf0 l     O .rwdata	00000004 atomic_test_count
01006a18 l     F .text	00000060 atomic_thread
01006a78 l     F .text	000000d0 atomic
01006b48 l     F .text	00000034 metal_test_atomic
0101b1c0 l     O .rwdata	00000010 metal_test_atomic.2316
00000000 l    df *ABS*	00000000 condition.c
00000000 l    df *ABS*	00000000 device.c
00000000 l    df *ABS*	00000000 init.c
00000000 l    df *ABS*	00000000 io.c
00000000 l    df *ABS*	00000000 irq.c
01006d80 l     F .text	0000003c metal_irq_unregister
01006dbc l     F .text	00000028 irq_handler
01006de4 l     F .text	00000174 irq
01006f58 l     F .text	00000034 metal_test_irq
0101b1d0 l     O .rwdata	00000010 metal_test_irq.2402
00000000 l    df *ABS*	00000000 mutex.c
01006f8c l     F .text	00000030 __metal_mutex_init
01006fbc l     F .text	00000024 __metal_mutex_deinit
01006fe0 l     F .text	00000040 __metal_mutex_acquire
01007020 l     F .text	00000030 __metal_mutex_release
01007050 l     F .text	00000034 metal_mutex_init
01007084 l     F .text	00000034 metal_mutex_deinit
010070b8 l     F .text	00000034 metal_mutex_acquire
010070ec l     F .text	00000034 metal_mutex_release
0101ccf4 l     O .rwdata	00000004 mutex_test_count
01007120 l     F .text	0000006c mutex_thread
0100718c l     F .text	00000064 mutex
010071f0 l     F .text	00000034 metal_test_mutex
0101b1e0 l     O .rwdata	00000010 metal_test_mutex.2608
00000000 l    df *ABS*	00000000 sys.c
00000000 l    df *ABS*	00000000 shmem.c
00000000 l    df *ABS*	00000000 sleep.c
010072e4 l     F .text	0000003c __metal_sleep_usec
01007320 l     F .text	00000030 metal_sleep_usec
01007350 l     F .text	000000c0 sleep
01007410 l     F .text	00000034 metal_test_sleep
0101b1f0 l     O .rwdata	00000010 metal_test_sleep.2855
00000000 l    df *ABS*	00000000 threads.c
01007444 l     F .text	0000005c thread_wrapper
00000000 l    df *ABS*	00000000 time.c
00000000 l    df *ABS*	00000000 init.c
010078e4 l     F .text	00000040 metal_list_init
00000000 l    df *ABS*	00000000 io.c
01007a10 l     F .text	0000005c metal_io_virt
00000000 l    df *ABS*	00000000 irq.c
010080fc l     F .text	00000064 metal_list_add_before
01008160 l     F .text	0000003c metal_list_add_tail
0101ccf8 l     O .rwdata	00000008 irq_cntrs
0100819c l     F .text	000000f4 metal_irq_allocate
0100835c l     F .text	00000094 metal_irq_get_controller
010083f0 l     F .text	00000060 _metal_irq_set_enable
00000000 l    df *ABS*	00000000 log.c
00000000 l    df *ABS*	00000000 shmem.c
0100867c l     F .text	00000064 metal_list_add_before
010086e0 l     F .text	0000003c metal_list_add_tail
0100871c l     F .text	00000028 metal_io_region_size
0101a6d4 l     O .rodata	0000001d __func__.2650
00000000 l    df *ABS*	00000000 softirq.c
010088c4 l     F .text	00000064 metal_irq_handle
0101e964 l     O .bss	00000004 metal_softirq_avail
0101cd00 l     O .rwdata	00000004 metal_softirq_num
0181ea68 l     O .bss	00000200 metal_softirqs
0181ec68 l     O .bss	00000040 metal_softirq_pending
0181eca8 l     O .bss	00000040 metal_softirq_enabled
01008928 l     F .text	000000b4 metal_softirq_set_enable
0101b200 l     O .rwdata	00000020 metal_softirq_cntr
00000000 l    df *ABS*	00000000 assert.c
00000000 l    df *ABS*	00000000 fiprintf.c
00000000 l    df *ABS*	00000000 impure.c
0101b220 l     O .rwdata	00000424 impure_data
00000000 l    df *ABS*	00000000 memcpy.c
00000000 l    df *ABS*	00000000 memset.c
00000000 l    df *ABS*	00000000 puts.c
00000000 l    df *ABS*	00000000 snprintf.c
00000000 l    df *ABS*	00000000 strcmp.c
00000000 l    df *ABS*	00000000 strerror.c
00000000 l    df *ABS*	00000000 strlen.c
00000000 l    df *ABS*	00000000 vfprintf.c
0101ae9e l     O .rodata	00000010 zeroes.4389
0101aeae l     O .rodata	00000010 blanks.4388
00000000 l    df *ABS*	00000000 u_strerr.c
00000000 l    df *ABS*	00000000 vfiprintfr_1.c
00000000 l    df *ABS*	00000000 abort.c
00000000 l    df *ABS*	00000000 dtoa.c
0100bc5c l     F .text	00000200 quorem
00000000 l    df *ABS*	00000000 findfp.c
0100d4e4 l     F .text	00000008 __fp_unlock
0100d4f8 l     F .text	0000019c __sinit.part.1
0100d694 l     F .text	00000008 __fp_lock
00000000 l    df *ABS*	00000000 fvwrite.c
00000000 l    df *ABS*	00000000 fwalk.c
00000000 l    df *ABS*	00000000 locale.c
0101b664 l     O .rwdata	00000020 lc_ctype_charset
0101b644 l     O .rwdata	00000020 lc_message_charset
0101b684 l     O .rwdata	00000038 lconv
00000000 l    df *ABS*	00000000 mallocr.c
00000000 l    df *ABS*	00000000 memchr.c
00000000 l    df *ABS*	00000000 memmove.c
00000000 l    df *ABS*	00000000 mprec.c
0101aedc l     O .rodata	0000000c p05.2768
00000000 l    df *ABS*	00000000 mallocr.c
00000000 l    df *ABS*	00000000 s_fpclassify.c
00000000 l    df *ABS*	00000000 sbrkr.c
00000000 l    df *ABS*	00000000 signal.c
00000000 l    df *ABS*	00000000 signalr.c
00000000 l    df *ABS*	00000000 stdio.c
00000000 l    df *ABS*	00000000 vfprintf.c
0101b010 l     O .rodata	00000010 blanks.4332
0101b000 l     O .rodata	00000010 zeroes.4333
00000000 l    df *ABS*	00000000 vfprintf.c
01011864 l     F .text	000000fc __sprint_r.part.0
0101b030 l     O .rodata	00000010 blanks.4348
0101b020 l     O .rodata	00000010 zeroes.4349
01012df0 l     F .text	000000bc __sbprintf
00000000 l    df *ABS*	00000000 writer.c
00000000 l    df *ABS*	00000000 wsetup.c
00000000 l    df *ABS*	00000000 closer.c
00000000 l    df *ABS*	00000000 mallocr.c
00000000 l    df *ABS*	00000000 fclose.c
00000000 l    df *ABS*	00000000 fflush.c
00000000 l    df *ABS*	00000000 fputwc.c
00000000 l    df *ABS*	00000000 mallocr.c
00000000 l    df *ABS*	00000000 int_errno.c
00000000 l    df *ABS*	00000000 lseekr.c
00000000 l    df *ABS*	00000000 makebuf.c
00000000 l    df *ABS*	00000000 readr.c
00000000 l    df *ABS*	00000000 wbuf.c
00000000 l    df *ABS*	00000000 wcrtomb.c
00000000 l    df *ABS*	00000000 wctomb_r.c
00000000 l    df *ABS*	00000000 fstatr.c
00000000 l    df *ABS*	00000000 isattyr.c
00000000 l    df *ABS*	00000000 libgcc2.c
00000000 l    df *ABS*	00000000 libgcc2.c
00000000 l    df *ABS*	00000000 lib2-divmod.c
00000000 l    df *ABS*	00000000 adddf3.c
00000000 l    df *ABS*	00000000 divdf3.c
00000000 l    df *ABS*	00000000 eqdf2.c
00000000 l    df *ABS*	00000000 gedf2.c
00000000 l    df *ABS*	00000000 ledf2.c
00000000 l    df *ABS*	00000000 muldf3.c
00000000 l    df *ABS*	00000000 subdf3.c
00000000 l    df *ABS*	00000000 fixdfsi.c
00000000 l    df *ABS*	00000000 floatsidf.c
00000000 l    df *ABS*	00000000 floatunsidf.c
00000000 l    df *ABS*	00000000 libgcc2.c
00000000 l    df *ABS*	00000000 libgcc2.c
00000000 l    df *ABS*	00000000 alt_close.c
01017498 l     F .text	0000003c alt_get_errno
00000000 l    df *ABS*	00000000 alt_dev.c
010175a4 l     F .text	0000002c alt_dev_null_write
00000000 l    df *ABS*	00000000 alt_errno.c
00000000 l    df *ABS*	00000000 alt_exit.c
00000000 l    df *ABS*	00000000 alt_fstat.c
01017604 l     F .text	0000003c alt_get_errno
00000000 l    df *ABS*	00000000 alt_getpid.c
00000000 l    df *ABS*	00000000 alt_irq_register.c
00000000 l    df *ABS*	00000000 alt_irq_vars.c
00000000 l    df *ABS*	00000000 alt_isatty.c
01017880 l     F .text	0000003c alt_get_errno
00000000 l    df *ABS*	00000000 alt_kill.c
01017960 l     F .text	0000003c alt_get_errno
00000000 l    df *ABS*	00000000 alt_load.c
01017acc l     F .text	00000068 alt_load_section
00000000 l    df *ABS*	00000000 alt_lseek.c
01017bb8 l     F .text	0000003c alt_get_errno
00000000 l    df *ABS*	00000000 alt_main.c
00000000 l    df *ABS*	00000000 alt_malloc_lock.c
00000000 l    df *ABS*	00000000 alt_read.c
01017d8c l     F .text	0000003c alt_get_errno
00000000 l    df *ABS*	00000000 alt_release_fd.c
00000000 l    df *ABS*	00000000 alt_sbrk.c
0101cd38 l     O .rwdata	00000004 heap_end
00000000 l    df *ABS*	00000000 alt_usleep.c
00000000 l    df *ABS*	00000000 alt_write.c
01018008 l     F .text	0000003c alt_get_errno
00000000 l    df *ABS*	00000000 alt_sys_init.c
0101813c l     F .text	00000034 alt_dev_reg
01018170 l     F .text	0000003c alt_get_errno
010181ac l     F .text	00000068 alt_avalon_mutex_reg
0101bc6c l     O .rwdata	00001060 jtag_uart_0
0101cccc l     O .rwdata	00000010 mutex_0
00000000 l    df *ABS*	00000000 altera_avalon_jtag_uart_fd.c
00000000 l    df *ABS*	00000000 altera_avalon_jtag_uart_init.c
010184d8 l     F .text	0000020c altera_avalon_jtag_uart_irq
010186e4 l     F .text	000000a0 altera_avalon_jtag_uart_timeout
00000000 l    df *ABS*	00000000 altera_avalon_jtag_uart_ioctl.c
00000000 l    df *ABS*	00000000 altera_avalon_jtag_uart_read.c
00000000 l    df *ABS*	00000000 altera_avalon_jtag_uart_write.c
00000000 l    df *ABS*	00000000 altera_avalon_mutex.c
01018d1c l     F .text	0000003c alt_get_errno
01018d58 l     F .text	0000007c alt_mutex_trylock
00000000 l    df *ABS*	00000000 altera_avalon_timer_sc.c
01018fe8 l     F .text	00000078 alt_avalon_timer_sc_irq
00000000 l    df *ABS*	00000000 alt_alarm_start.c
00000000 l    df *ABS*	00000000 alt_busy_sleep.c
00000000 l    df *ABS*	00000000 alt_dcache_flush_all.c
00000000 l    df *ABS*	00000000 alt_dev_llist_insert.c
010193a8 l     F .text	0000003c alt_get_errno
00000000 l    df *ABS*	00000000 alt_do_ctors.c
00000000 l    df *ABS*	00000000 alt_do_dtors.c
00000000 l    df *ABS*	00000000 alt_find_dev.c
00000000 l    df *ABS*	00000000 alt_icache_flush_all.c
00000000 l    df *ABS*	00000000 alt_iic.c
00000000 l    df *ABS*	00000000 alt_iic_isr_register.c
00000000 l    df *ABS*	00000000 alt_io_redirect.c
010198ac l     F .text	000000c4 alt_open_fd
00000000 l    df *ABS*	00000000 alt_open.c
010199ec l     F .text	0000003c alt_get_errno
01019a28 l     F .text	000000c4 alt_file_locked
00000000 l    df *ABS*	00000000 alt_tick.c
00000000 l    df *ABS*	00000000 altera_nios2_gen2_irq.c
00000000 l    df *ABS*	00000000 alt_find_file.c
00000000 l    df *ABS*	00000000 alt_get_fd.c
00000000 l    df *ABS*	00000000 alt_icache_flush.c
00000000 l    df *ABS*	00000000 atexit.c
00000000 l    df *ABS*	00000000 exit.c
00000000 l    df *ABS*	00000000 memcmp.c
00000000 l    df *ABS*	00000000 __atexit.c
00000000 l    df *ABS*	00000000 __call_atexit.c
0101e99c g     O .bss	00000004 alt_instruction_exception_handler
0100f874 g     F .text	00000074 _mprec_log10
0100f960 g     F .text	0000008c __any_on
01006258 g     F .text	000000a4 metal_bus_find
01014178 g     F .text	00000054 _isatty_r
0101aee8 g     O .rodata	00000028 __mprec_tinytens
01017cc8 g     F .text	0000007c alt_main
01008fd0 g     F .text	000000c0 _puts_r
0181ed30 g     O .bss	00000100 alt_irq
0181ed10 g     O .bss	00000020 _metal
01013b60 g     F .text	00000060 _lseek_r
0100012c g       .exceptions	00000000 restore_sp_from_pxCurrentTCB
0100486c g     F .text	00000064 vTaskPlaceOnUnorderedEventList
01001250 g     F .text	00000020 xPortGetFreeHeapSize
010007d4 g     F .text	0000003c xEventGroupGetBitsFromISR
0101cd4c g       *ABS*	00000000 __flash_rwdata_start
01015fc4 g     F .text	00000088 .hidden __eqdf2
0181ee30 g       *ABS*	00000000 __alt_heap_start
01003d28 g     F .text	00000058 uxTaskPriorityGet
010102bc g     F .text	0000005c _kill_r
01013f34 g     F .text	0000009c _wcrtomb_r
01010084 g     F .text	00000084 _signal_r
010103f4 g     F .text	0000005c __sseek
0100d834 g     F .text	00000010 __sinit
01013ddc g     F .text	00000140 __swbuf_r
0100dec8 g     F .text	0000007c _setlocale_r
0100d69c g     F .text	00000068 __sfmoreglue
01008654 g     F .text	00000028 metal_get_log_level
01002da4 g     F .text	00000158 xStreamBufferReceive
01017d68 g     F .text	00000024 __malloc_unlock
01009998 g     F .text	0000001c strerror
01008744 g     F .text	000000b8 metal_shmem_register_generic
01000440 g     F .text	00000184 xEventGroupSync
0100e894 g     F .text	0000015c memmove
010072a4 g     F .text	00000040 metal_shmem_open
01005270 g     F .text	00000054 vTaskEnterCritical
0100d81c g     F .text	00000018 _cleanup
0100917c g     F .text	000000e4 snprintf
01001938 g     F .text	000000e8 xQueueGenericSendFromISR
01004554 g     F .text	00000040 pcTaskGetName
01018e90 g     F .text	00000040 altera_avalon_mutex_trylock
0100e9f0 g     F .text	000000a8 _Balloc
01002990 g     F .text	00000088 xStreamBufferSpacesAvailable
01008620 g     F .text	00000034 metal_set_log_level
0101604c g     F .text	000000dc .hidden __gtdf2
01019de4 g     F .text	00000024 altera_nios2_gen2_irq_init
01002888 g     F .text	0000009c xStreamBufferReset
01000000 g     F .entry	0000001c __reset
01001600 g     F .text	00000090 xQueueGiveMutexRecursive
0101e928 g     O .bss	00000004 pxCurrentTCB
01018f24 g     F .text	00000074 altera_avalon_mutex_is_mine
01006c60 g     F .text	00000034 metal_sys_finish
01000020 g       *ABS*	00000000 __flash_exceptions_start
0101411c g     F .text	0000005c _fstat_r
01007a6c g     F .text	00000168 metal_io_init
0101e980 g     O .bss	00000004 errno
01010370 g     F .text	00000008 __seofread
01010628 g     F .text	0000123c ___svfiprintf_internal_r
01007274 g     F .text	00000030 metal_machine_io_mem_map
01002be0 g     F .text	000000f0 xStreamBufferSendFromISR
0100650c g     F .text	000000a4 metal_generic_dev_open
0101e98c g     O .bss	00000004 alt_argv
01024cdc g       *ABS*	00000000 _gp
01017fd8 g     F .text	00000030 usleep
010087fc g     F .text	000000c8 metal_shmem_open_generic
01006698 g     F .text	00000088 metal_generic_dev_dma_unmap
01003dcc g     F .text	000001a4 vTaskPrioritySet
010176f0 g     F .text	00000020 getpid
01004ad8 g     F .text	0000003c vTaskInternalSetTimeOutState
010063e8 g     F .text	00000090 metal_device_close
010005c4 g     F .text	000001a8 xEventGroupWaitBits
0101baec g     O .rwdata	00000180 alt_fd_list
01000e88 g     F .text	00000038 xPortStartScheduler
01004314 g     F .text	00000048 vTaskEndScheduler
01019548 g     F .text	00000090 alt_find_dev
01008d60 g     F .text	00000148 memcpy
0100481c g     F .text	00000050 vTaskPlaceOnEventList
010049c4 g     F .text	000000c8 vTaskRemoveFromUnorderedEventList
0100d4ec g     F .text	0000000c _cleanup_r
010172b0 g     F .text	000000dc .hidden __floatsidf
01019970 g     F .text	0000007c alt_io_redirect
01016128 g     F .text	000000f4 .hidden __ltdf2
01002148 g     F .text	0000007c xQueuePeekFromISR
0101a454 g       *ABS*	00000000 __DTOR_END__
01006ba4 g     F .text	00000084 metal_generic_dev_sys_open
01009090 g     F .text	00000014 puts
0101a044 g     F .text	0000009c alt_exception_cause_generated_bad_addr
01001184 g     F .text	000000cc vPortFree
0100933c g     F .text	0000065c _strerror_r
0100ff50 g     F .text	00000074 __fpclassifyd
0100f7d0 g     F .text	000000a4 __ratio
01012dd4 g     F .text	0000001c __vfiprintf_internal
01001ca4 g     F .text	00000210 xQueueSemaphoreTake
010188dc g     F .text	0000021c altera_avalon_jtag_uart_read
01014d74 g     F .text	00000064 .hidden __udivsi3
010178bc g     F .text	000000a4 isatty
01010108 g     F .text	000000bc _raise_r
01008c88 g     F .text	00000068 __assert_func
0101af38 g     O .rodata	000000c8 __mprec_tens
01004dd4 g     F .text	00000060 uxTaskGetStackHighWaterMark
010074a0 g     F .text	00000100 metal_run
0100df44 g     F .text	0000000c __locale_charset
01000b80 g     F .text	0000008c vListInsertEnd
01019fb4 g     F .text	00000090 alt_icache_flush
0101e97c g     O .bss	00000004 __malloc_top_pad
01010318 g     F .text	00000004 _getpid_r
010003ec g     F .text	00000054 xEventGroupCreate
0101cd0c g     O .rwdata	00000004 __mb_cur_max
0100df74 g     F .text	0000000c _localeconv_r
0100edfc g     F .text	0000003c __i2b
0100d884 g     F .text	000004bc __sfvwrite_r
010101c4 g     F .text	000000a8 __sigtramp_r
0100ffc4 g     F .text	00000054 _sbrk_r
010085c4 g     F .text	00000034 metal_set_log_handler
01000a04 g     F .text	0000003c vEventGroupSetBitsCallback
010041a4 g     F .text	000000e0 xTaskResumeFromISR
01007924 g     F .text	000000ac metal_init
01013d7c g     F .text	00000060 _read_r
01000b54 g     F .text	0000002c vListInitialiseItem
0101cd2c g     O .rwdata	00000004 alt_max_fd
01000f68 g     F .text	00000048 vPortSysTickHandler
01013178 g     F .text	000000f0 _fclose_r
01001afc g     F .text	000001a8 xQueueReceive
010134f4 g     F .text	00000030 fflush
0101e978 g     O .bss	00000004 __malloc_max_sbrked_mem
01007bd4 g     F .text	000001b4 metal_io_block_read
01003d80 g     F .text	0000004c uxTaskPriorityGetFromISR
01017710 g     F .text	00000170 alt_irq_register
01014e30 g     F .text	000008ac .hidden __adddf3
0100f578 g     F .text	0000010c __b2d
01014744 g     F .text	00000538 .hidden __umoddi3
01017bf4 g     F .text	000000d4 lseek
01018f98 g     F .text	00000050 altera_avalon_mutex_first_lock
0101cd04 g     O .rwdata	00000004 _global_impure_ptr
01000810 g     F .text	00000180 xEventGroupSetBits
0100f9ec g     F .text	00000564 _realloc_r
0181ee30 g       *ABS*	00000000 __bss_end
010197bc g     F .text	000000f0 alt_iic_isr_register
01019cdc g     F .text	00000108 alt_tick
010141cc g     F .text	00000578 .hidden __udivdi3
01013688 g     F .text	00000024 _fputwc_r
0101af10 g     O .rodata	00000028 __mprec_bigtens
0100ebe0 g     F .text	00000104 __s2b
0100bc44 g     F .text	00000018 abort
0101738c g     F .text	000000a8 .hidden __floatunsidf
01006b7c g     F .text	00000028 metal_condition_wait
0100f2b8 g     F .text	00000060 __mcmp
01000fb0 g     F .text	000001d4 pvPortMalloc
0100851c g     F .text	0000003c metal_irq_enable
0100d854 g     F .text	00000018 __fp_lock_all
01019770 g     F .text	0000004c alt_ic_irq_enabled
01002290 g     F .text	0000003c vQueueDelete
010060bc g     F .text	000000f8 metal_bus_register
01000ec0 g     F .text	00000020 vPortEndScheduler
01000aec g     F .text	00000068 vListInitialise
01003144 g     F .text	00000058 xStreamBufferIsEmpty
01019c40 g     F .text	0000009c alt_alarm_stop
0101e984 g     O .bss	00000004 alt_irq_active
01000258 g     F .exceptions	000000d4 alt_irq_handler
0101bac4 g     O .rwdata	00000028 alt_dev_null
010044e0 g     F .text	00000028 xTaskGetTickCount
01001784 g     F .text	000001b4 xQueueGenericSend
01018dd4 g     F .text	00000054 altera_avalon_mutex_open
01002a58 g     F .text	00000188 xStreamBufferSend
0100329c g     F .text	00000084 xStreamBufferReceiveCompletedFromISR
01019360 g     F .text	00000048 alt_dcache_flush_all
0100ece4 g     F .text	00000068 __hi0bits
01017230 g     F .text	00000080 .hidden __fixdfsi
01002efc g     F .text	000000a8 xStreamBufferNextMessageLengthBytes
01005034 g     F .text	000000fc xTaskPriorityDisinherit
01008a6c g     F .text	00000030 metal_softirq_init
0101cd4c g       *ABS*	00000000 __ram_rwdata_end
0101cd24 g     O .rwdata	00000008 alt_dev_list
01018044 g     F .text	000000f8 write
010048d0 g     F .text	000000f4 xTaskRemoveFromEventList
0101cd3c g     O .rwdata	00000008 alt_mutex_list
0101b184 g       *ABS*	00000000 __ram_rodata_end
01017640 g     F .text	000000b0 fstat
0100076c g     F .text	00000068 xEventGroupClearBits
0101799c g     F .text	00000130 kill
01016128 g     F .text	000000f4 .hidden __ledf2
01001eb4 g     F .text	000001b0 xQueuePeek
0100f030 g     F .text	00000140 __pow5mult
0101e970 g     O .bss	00000004 __nlocale_changed
01011978 g     F .text	0000145c ___vfiprintf_internal_r
01014dd8 g     F .text	00000058 .hidden __umodsi3
010089dc g     F .text	00000090 metal_softirq_set
01008558 g     F .text	0000003c metal_irq_disable
0181ee30 g       *ABS*	00000000 end
01002fa4 g     F .text	000000e4 xStreamBufferReceiveFromISR
010039e4 g     F .text	000000e8 vTaskDelete
01018418 g     F .text	000000c0 altera_avalon_jtag_uart_init
0100032c g     F .exceptions	00000074 alt_instruction_exception_entry
01005368 g     F .text	00000038 pvTaskIncrementMutexHeldCount
0101a440 g       *ABS*	00000000 __CTOR_LIST__
02000000 g       *ABS*	00000000 __alt_stack_pointer
01019060 g     F .text	0000007c alt_avalon_timer_sc_init
01017434 g     F .text	00000064 .hidden __clzsi2
010090a4 g     F .text	000000d8 _snprintf_r
01018af8 g     F .text	00000224 altera_avalon_jtag_uart_write
01007894 g     F .text	00000050 metal_get_timestamp
0100d844 g     F .text	00000004 __sfp_lock_acquire
0100e7b0 g     F .text	000000e4 memchr
01004b14 g     F .text	000000e0 xTaskCheckForTimeOut
01013850 g     F .text	00000310 _free_r
01004ef4 g     F .text	00000140 xTaskPriorityInherit
0100df50 g     F .text	00000010 __locale_mb_cur_max
0101a2c0 g     F .text	00000180 __call_exitprocs
01002824 g     F .text	00000064 vStreamBufferDelete
0101e96c g     O .bss	00000004 __mlocale_changed
010053a0 g     F .text	000000b0 ulTaskNotifyTake
0101cd10 g     O .rwdata	00000004 __malloc_sbrk_base
010003a0 g     F .text	0000004c _start
0101e994 g     O .bss	00000004 _alt_tick_rate
0100435c g     F .text	0000002c vTaskSuspendAll
01003c18 g     F .text	00000110 eTaskGetState
0100319c g     F .text	0000007c xStreamBufferIsFull
01004508 g     F .text	0000002c xTaskGetTickCountFromISR
0100bc24 g     F .text	00000008 _user_strerror
010062fc g     F .text	000000ec metal_device_open
0100f170 g     F .text	00000148 __lshift
0101e998 g     O .bss	00000004 _alt_nticks
01010280 g     F .text	00000018 signal
01017dc8 g     F .text	000000fc read
0101824c g     F .text	00000068 alt_sys_init
010075a0 g     F .text	00000214 metal_run_noblock
01010458 g     F .text	000001d0 __ssprint_r
01000ce4 g     F .text	00000098 uxListRemove
0101a1a8 g     F .text	00000118 __register_exitproc
01018ed0 g     F .text	00000054 altera_avalon_mutex_unlock
01002778 g     F .text	000000ac xStreamBufferGenericCreate
0100ee38 g     F .text	000001f8 __multiply
01018784 g     F .text	00000068 altera_avalon_jtag_uart_close
0101b184 g       *ABS*	00000000 __ram_rwdata_start
0101a454 g       *ABS*	00000000 __ram_rodata_start
0181ece8 g     O .bss	00000028 __malloc_current_mallinfo
010059f4 g     F .text	00000078 xTaskNotifyStateClear
010040d8 g     F .text	000000cc vTaskResume
0100f684 g     F .text	0000014c __d2b
01004744 g     F .text	000000d8 vTaskSwitchContext
010182b4 g     F .text	00000060 altera_avalon_jtag_uart_read_fd
01019f10 g     F .text	000000a4 alt_get_fd
01019208 g     F .text	00000158 alt_busy_sleep
01013060 g     F .text	00000054 _close_r
01005450 g     F .text	000000f4 xTaskNotifyWait
0101a12c g     F .text	0000007c memcmp
01018374 g     F .text	00000050 altera_avalon_jtag_uart_close_fd
0181ee30 g       *ABS*	00000000 __alt_stack_base
010183c4 g     F .text	00000054 altera_avalon_jtag_uart_ioctl_fd
01005c28 g     F .text	0000003c metal_add_test_case
01012f0c g     F .text	00000154 __swsetup_r
01003f70 g     F .text	000000fc vTaskSuspend
010156dc g     F .text	000008e8 .hidden __divdf3
0100d704 g     F .text	00000118 __sfp
0100f8e8 g     F .text	00000078 __copybits
01004534 g     F .text	00000020 uxTaskGetNumberOfTasks
0101b6bc g     O .rwdata	00000408 __malloc_av_
0100d850 g     F .text	00000004 __sinit_lock_release
01007d88 g     F .text	000001b0 metal_io_block_write
0101621c g     F .text	00000718 .hidden __muldf3
0101031c g     F .text	00000054 __sread
01019e08 g     F .text	00000108 alt_find_file
010193e4 g     F .text	000000a4 alt_dev_llist_insert
01017d44 g     F .text	00000024 __malloc_lock
01017f28 g     F .text	000000b0 sbrk
01009a4c g     F .text	000021d8 ___svfprintf_internal_r
01001690 g     F .text	0000009c xQueueTakeMutexRecursive
01006478 g     F .text	00000094 metal_register_generic_device
01008a9c g     F .text	000000bc metal_softirq_allocate
01013498 g     F .text	0000005c _fflush_r
01000990 g     F .text	00000074 vEventGroupDelete
01006720 g     F .text	000000c0 metal_dma_map
010130b4 g     F .text	000000c4 _calloc_r
01005544 g     F .text	000001ac xTaskGenericNotify
0101e914 g       *ABS*	00000000 __bss_start
01008ea8 g     F .text	00000128 memset
01005b54 g     F .text	00000034 main
0101e990 g     O .bss	00000004 alt_envp
0101e974 g     O .bss	00000004 __malloc_max_total_mem
01007224 g     F .text	00000028 metal_machine_cache_flush
01018314 g     F .text	00000060 altera_avalon_jtag_uart_write_fd
01013f1c g     F .text	00000018 __swbuf
01008594 g     F .text	00000030 metal_default_log_handler
01000c0c g     F .text	000000d8 vListInsert
01010450 g     F .text	00000008 __sclose
02000000 g       *ABS*	00000000 __alt_heap_limit
01013268 g     F .text	00000014 fclose
01018e4c g     F .text	00000044 altera_avalon_mutex_lock
0100be5c g     F .text	00001688 _dtoa_r
0100dfa4 g     F .text	0000080c _malloc_r
01014090 g     F .text	00000030 __ascii_wctomb
0101cd30 g     O .rwdata	00000004 alt_errno
01003acc g     F .text	000000f0 vTaskDelayUntil
01008d04 g     F .text	00000020 _fiprintf_r
01010298 g     F .text	00000010 _init_signal
010067e0 g     F .text	000000a0 metal_dma_unmap
0100dd40 g     F .text	000000c4 _fwalk
01006c94 g     F .text	000000ec metal_sys_io_mem_map
01002064 g     F .text	000000e4 xQueueReceiveFromISR
01004ecc g     F .text	00000028 xTaskGetCurrentTaskHandle
01014c7c g     F .text	00000084 .hidden __divsi3
01001418 g     F .text	000000a8 xQueueGenericCreate
0101372c g     F .text	00000124 _malloc_trim_r
0101a454 g       *ABS*	00000000 __CTOR_END__
01009260 g     F .text	000000dc strcmp
0100172c g     F .text	00000058 xQueueCreateCountingSemaphore
0101a454 g       *ABS*	00000000 __flash_rodata_start
0101a454 g       *ABS*	00000000 __DTOR_LIST__
01002924 g     F .text	0000006c xStreamBufferSetTriggerLevel
010077b4 g     F .text	000000e0 metal_finish_threads
010056f0 g     F .text	000001e4 xTaskGenericNotifyFromISR
01015fc4 g     F .text	00000088 .hidden __nedf2
01018214 g     F .text	00000038 alt_irq_init
01017ec4 g     F .text	00000064 alt_release_fd
01004388 g     F .text	00000158 xTaskResumeAll
01002204 g     F .text	00000054 uxQueueSpacesAvailable
0101b040 g     O .rodata	00000100 .hidden __clz_tab
01004284 g     F .text	00000090 vTaskStartScheduler
0101e968 g     O .bss	00000004 _PathLocale
01008290 g     F .text	000000cc metal_irq_register_controller
0101a0e0 g     F .text	00000014 atexit
01012eac g     F .text	00000060 _write_r
0100df80 g     F .text	00000018 setlocale
01002728 g     F .text	00000050 xQueueIsQueueFullFromISR
0101cd08 g     O .rwdata	00000004 _impure_ptr
0101e988 g     O .bss	00000004 alt_argc
0101327c g     F .text	0000021c __sflush_r
010194e8 g     F .text	00000060 _do_dtors
0100df6c g     F .text	00000008 __locale_cjk_lang
01000020 g       .exceptions	00000000 alt_irq_entry
0100f514 g     F .text	00000064 __ulp
0100d86c g     F .text	00000018 __fp_unlock_all
01004bf4 g     F .text	00000028 vTaskMissedYield
0101cd1c g     O .rwdata	00000008 alt_fs_list
010021c4 g     F .text	00000040 uxQueueMessagesWaiting
0101b184  w    O .rwdata	0000002c metal_generic_bus
01004594 g     F .text	000001b0 xTaskIncrementTick
01000020 g       *ABS*	00000000 __ram_exceptions_start
0100724c g     F .text	00000028 metal_machine_cache_invalidate
0100df98 g     F .text	0000000c localeconv
010079d0 g     F .text	00000040 metal_finish
010065b0 g     F .text	000000e8 metal_generic_dev_dma_map
0101960c g     F .text	00000050 alt_ic_isr_register
01001304 g     F .text	00000114 xQueueGenericReset
0101cd4c g       *ABS*	00000000 _edata
0181ee30 g       *ABS*	00000000 _end
01013524 g     F .text	00000164 __fputwc
010003a0 g       *ABS*	00000000 __ram_exceptions_end
01007f38 g     F .text	000001c4 metal_io_block_set
010187ec g     F .text	000000f0 altera_avalon_jtag_uart_ioctl
01006c28 g     F .text	00000038 metal_sys_init
0100361c g     F .text	000000e8 xTaskCreate
01001270 g     F .text	00000020 vPortInitialiseBlocks
010196e4 g     F .text	0000008c alt_ic_irq_disable
01010378 g     F .text	0000007c __swrite
0101cd14 g     O .rwdata	00000004 __malloc_trim_threshold
0100df60 g     F .text	0000000c __locale_msgcharset
0101a0f4 g     F .text	00000038 exit
01008d24 g     F .text	0000003c fiprintf
0100bc2c g     F .text	00000018 _vfiprintf_r
0100de04 g     F .text	000000c4 _fwalk_reent
0100f318 g     F .text	000001fc __mdiff
01014d00 g     F .text	00000074 .hidden __modsi3
01003bbc g     F .text	0000005c vTaskDelay
02000000 g       *ABS*	00000000 __alt_data_end
01000020 g     F .exceptions	00000000 alt_exception
0100d848 g     F .text	00000004 __sfp_lock_release
01000000 g       *ABS*	00000000 __alt_mem_sdram
01008b58 g     F .text	00000130 metal_softirq_dispatch
01005130 g     F .text	00000140 vTaskPriorityDisinheritAfterTimeout
01008450 g     F .text	000000cc metal_irq_register
010175d0 g     F .text	00000034 _exit
010190dc g     F .text	0000012c alt_alarm_start
01013bc0 g     F .text	000001bc __smakebuf_r
010052c4 g     F .text	00000060 vTaskExitCritical
010099b4 g     F .text	00000098 strlen
01000da8 g     F .text	000000e0 pxPortInitialiseStack
01010018 g     F .text	0000006c _init_signal_r
01019aec g     F .text	00000154 open
0101604c g     F .text	000000dc .hidden __gedf2
01008cf0 g     F .text	00000014 __assert
010061b4 g     F .text	000000a4 metal_bus_unregister
0101cd18 g     O .rwdata	00000004 __wctomb
010085f8 g     F .text	00000028 metal_get_log_handler
01011960 g     F .text	00000018 __sprint_r
010195d8 g     F .text	00000034 alt_icache_flush_all
01004a8c g     F .text	0000004c vTaskSetTimeOutState
0101cd34 g     O .rwdata	00000004 alt_priority_mask
0101965c g     F .text	00000088 alt_ic_irq_enable
01018e28 g     F .text	00000024 altera_avalon_mutex_close
010140c0 g     F .text	0000005c _wctomb_r
01002258 g     F .text	00000038 uxQueueMessagesWaitingFromISR
01002688 g     F .text	00000048 xQueueIsQueueEmptyFromISR
01002a18 g     F .text	00000040 xStreamBufferBytesAvailable
01016934 g     F .text	000008fc .hidden __subdf3
0100ed4c g     F .text	000000b0 __lo0bits
0101cd44 g     O .rwdata	00000008 alt_alarm_list
01019488 g     F .text	00000060 _do_ctors
010102a8 g     F .text	00000014 __sigtramp
01005324 g     F .text	00000044 uxTaskResetEventItemValue
01013fd0 g     F .text	000000c0 wcrtomb
010015a4 g     F .text	0000005c xQueueCreateMutex
010174d4 g     F .text	000000d0 close
010058d4 g     F .text	00000120 vTaskNotifyGiveFromISR
01017b34 g     F .text	00000084 alt_load
01000a40 g     F .text	0000003c vEventGroupClearBitsCallback
01003218 g     F .text	00000084 xStreamBufferSendCompletedFromISR
01001a20 g     F .text	000000dc xQueueGiveFromISR
010136ac g     F .text	00000080 fputwc
0101026c g     F .text	00000014 raise
0100d84c g     F .text	00000004 __sinit_lock_acquire
01005c64 g     F .text	00000220 metal_tests_run
0100eac0 g     F .text	00000120 __multadd
0100ea98 g     F .text	00000028 _Bfree



Disassembly of section .entry:

01000000 <__reset>:
#if NIOS2_ICACHE_SIZE > 0 && defined(ALT_ALLOW_CODE_AT_RESET) && (!defined(ALT_SIM_OPTIMIZE) || defined(NIOS2_ECC_PRESENT))
    /* Assume the instruction cache size is always a power of two. */
#if NIOS2_ICACHE_SIZE > 0x8000
    movhi r2, %hi(NIOS2_ICACHE_SIZE)
#else
    movui r2, NIOS2_ICACHE_SIZE
 1000000:	00820014 	movui	r2,2048
#endif

0:
    initi r2
 1000004:	1001483a 	initi	r2
    addi r2, r2, -NIOS2_ICACHE_LINE_SIZE
 1000008:	10bff804 	addi	r2,r2,-32
    bgt r2, zero, 0b
 100000c:	00bffd16 	blt	zero,r2,1000004 <__alt_data_end+0xff000004>
 * Jump to the _start entry point in the .text section if reset code
 * is allowed or if optimizing for RTL simulation.
 */
#if defined(ALT_ALLOW_CODE_AT_RESET) || defined(ALT_SIM_OPTIMIZE)
    /* Jump to the _start entry point in the .text section. */
    movhi r1, %hi(_start)
 1000010:	00404034 	movhi	at,256
    ori r1, r1, %lo(_start)
 1000014:	0840e814 	ori	at,at,928
    jmp r1
 1000018:	0800683a 	jmp	at
 100001c:	00000000 	call	0 <__alt_mem_sdram-0x1000000>

Disassembly of section .exceptions:

01000020 <alt_exception>:
# Entry point for exceptions.
.section .exceptions.entry, "xa"		

# Save the entire context of a task.
save_context:
	addi	ea, ea, -4			# Point to the next instruction.
 1000020:	ef7fff04 	addi	ea,ea,-4
	addi	sp,	sp, -116		# Create space on the stack.
 1000024:	deffe304 	addi	sp,sp,-116
	stw		ra, 0(sp)
 1000028:	dfc00015 	stw	ra,0(sp)
								# Leave a gap for muldiv 0
	stw		at, 8(sp)		 
 100002c:	d8400215 	stw	at,8(sp)
	stw		r2, 12(sp)
 1000030:	d8800315 	stw	r2,12(sp)
	stw		r3, 16(sp)
 1000034:	d8c00415 	stw	r3,16(sp)
	stw		r4, 20(sp)
 1000038:	d9000515 	stw	r4,20(sp)
	stw		r5, 24(sp) 
 100003c:	d9400615 	stw	r5,24(sp)
	stw		r6, 28(sp) 
 1000040:	d9800715 	stw	r6,28(sp)
	stw		r7, 32(sp) 
 1000044:	d9c00815 	stw	r7,32(sp)
	stw		r8, 36(sp) 
 1000048:	da000915 	stw	r8,36(sp)
	stw		r9, 40(sp) 
 100004c:	da400a15 	stw	r9,40(sp)
	stw		r10, 44(sp)
 1000050:	da800b15 	stw	r10,44(sp)
	stw		r11, 48(sp)
 1000054:	dac00c15 	stw	r11,48(sp)
	stw		r12, 52(sp)
 1000058:	db000d15 	stw	r12,52(sp)
	stw		r13, 56(sp)
 100005c:	db400e15 	stw	r13,56(sp)
	stw		r14, 60(sp)
 1000060:	db800f15 	stw	r14,60(sp)
	stw		r15, 64(sp)
 1000064:	dbc01015 	stw	r15,64(sp)
	rdctl	r5, estatus 		# Save the eStatus
 1000068:	000b307a 	rdctl	r5,estatus
	stw		r5, 68(sp)
 100006c:	d9401115 	stw	r5,68(sp)
	stw		ea, 72(sp)			# Save the PC
 1000070:	df401215 	stw	ea,72(sp)
	stw		r16, 76(sp)			# Save the remaining registers
 1000074:	dc001315 	stw	r16,76(sp)
	stw		r17, 80(sp)
 1000078:	dc401415 	stw	r17,80(sp)
	stw		r18, 84(sp)
 100007c:	dc801515 	stw	r18,84(sp)
	stw		r19, 88(sp)
 1000080:	dcc01615 	stw	r19,88(sp)
	stw		r20, 92(sp)
 1000084:	dd001715 	stw	r20,92(sp)
	stw		r21, 96(sp)
 1000088:	dd401815 	stw	r21,96(sp)
	stw		r22, 100(sp)
 100008c:	dd801915 	stw	r22,100(sp)
	stw		r23, 104(sp)
 1000090:	ddc01a15 	stw	r23,104(sp)
	stw		gp, 108(sp)
 1000094:	de801b15 	stw	gp,108(sp)
	stw		fp, 112(sp)
 1000098:	df001c15 	stw	fp,112(sp)

0100009c <save_sp_to_pxCurrentTCB>:
 100009c:	060040b4 	movhi	et,258

save_sp_to_pxCurrentTCB:
	movia	et, pxCurrentTCB	# Load the address of the pxCurrentTCB pointer
 10000a0:	c63a4a04 	addi	et,et,-5848
	ldw		et, (et)			# Load the value of the pxCurrentTCB pointer
 10000a4:	c6000017 	ldw	et,0(et)
	stw		sp, (et)			# Store the stack pointer into the top of the TCB
 10000a8:	c6c00015 	stw	sp,0(et)

#else /* ALT_EXCEPTION_STACK disabled */
        /* 
         * Reserve space on normal stack for registers about to be pushed.
         */
        addi  sp, sp, -76
 10000ac:	deffed04 	addi	sp,sp,-76
         * documentation for details).
         *
         * Leave a gap in the stack frame at 4(sp) for the muldiv handler to
         * store zero into.
         */
        stw   ra,  0(sp)
 10000b0:	dfc00015 	stw	ra,0(sp)
        stw   r1,   8(sp)
 10000b4:	d8400215 	stw	at,8(sp)
        stw   r2,  12(sp)
 10000b8:	d8800315 	stw	r2,12(sp)
        stw   r3,  16(sp)
 10000bc:	d8c00415 	stw	r3,16(sp)
        stw   r4,  20(sp)
 10000c0:	d9000515 	stw	r4,20(sp)
        stw   r5,  24(sp)
 10000c4:	d9400615 	stw	r5,24(sp)
        stw   r6,  28(sp)
 10000c8:	d9800715 	stw	r6,28(sp)
        stw   r7,  32(sp)
 10000cc:	d9c00815 	stw	r7,32(sp)
        rdctl r5, estatus   /* Read early to avoid usage stall */
 10000d0:	000b307a 	rdctl	r5,estatus
        stw   r8,  36(sp)
 10000d4:	da000915 	stw	r8,36(sp)
        stw   r9,  40(sp)
 10000d8:	da400a15 	stw	r9,40(sp)
        stw   r10, 44(sp)
 10000dc:	da800b15 	stw	r10,44(sp)
        stw   r11, 48(sp)
 10000e0:	dac00c15 	stw	r11,48(sp)
        stw   r12, 52(sp)
 10000e4:	db000d15 	stw	r12,52(sp)
        stw   r13, 56(sp)
 10000e8:	db400e15 	stw	r13,56(sp)
        stw   r14, 60(sp)
 10000ec:	db800f15 	stw	r14,60(sp)
        stw   r15, 64(sp)
 10000f0:	dbc01015 	stw	r15,64(sp)
        /*
         * ea-4 contains the address of the instruction being executed
         * when the exception occured. For interrupt exceptions, we will
         * will be re-issue the isntruction. Store it in 72(sp)
         */
        stw   r5,  68(sp)  /* estatus */
 10000f4:	d9401115 	stw	r5,68(sp)
        addi  r15, ea, -4  /* instruction that caused exception */
 10000f8:	ebffff04 	addi	r15,ea,-4
        stw   r15,  72(sp)
 10000fc:	dbc01215 	stw	r15,72(sp)

01000100 <hw_irq_test>:
hw_irq_test:
	/*
     * Test to see if the exception was a software exception or caused 
     * by an external interrupt, and vector accordingly.
     */
    rdctl	r4, ipending		# Load the Pending Interrupts indication
 1000100:	0009313a 	rdctl	r4,ipending
	rdctl	r5, estatus 		# Load the eStatus (enabled interrupts).
 1000104:	000b307a 	rdctl	r5,estatus
    andi	r2, r5, 1			# Are interrupts enabled globally.
 1000108:	2880004c 	andi	r2,r5,1
    beq		r2, zero, soft_exceptions		# Interrupts are not enabled.
 100010c:	10002d26 	beq	r2,zero,10001c4 <soft_exceptions>
    beq		r4, zero, soft_exceptions		# There are no interrupts triggered.
 1000110:	20002c26 	beq	r4,zero,10001c4 <soft_exceptions>
#else
        /*
         * Test to see if the exception was a software exception or caused 
         * by an external interrupt, and vector accordingly.
         */
        rdctl r4, ipending
 1000114:	0009313a 	rdctl	r4,ipending
        andi  r2, r5, 1
 1000118:	2880004c 	andi	r2,r5,1
        beq   r2, zero, .Lnot_irq
 100011c:	10002726 	beq	r2,zero,10001bc <restore_context+0x80>
        beq   r4, zero, .Lnot_irq
 1000120:	20002626 	beq	r4,zero,10001bc <restore_context+0x80>

01000124 <hw_irq_handler>:

	.section .exceptions.irqhandler, "xa"
hw_irq_handler:
	call	alt_irq_handler					# Call the alt_irq_handler to deliver to the registered interrupt handler.
 1000124:	10002580 	call	1000258 <alt_irq_handler>
        /*
         * Now that all necessary registers have been preserved, call 
         * alt_irq_handler() to process the interrupts.
         */

        call alt_irq_handler
 1000128:	10002580 	call	1000258 <alt_irq_handler>

0100012c <restore_sp_from_pxCurrentTCB>:
 100012c:	060040b4 	movhi	et,258

    .section .exceptions.irqreturn, "xa"
restore_sp_from_pxCurrentTCB:
	movia	et, pxCurrentTCB		# Load the address of the pxCurrentTCB pointer
 1000130:	c63a4a04 	addi	et,et,-5848
	ldw		et, (et)				# Load the value of the pxCurrentTCB pointer
 1000134:	c6000017 	ldw	et,0(et)
	ldw		sp, (et)				# Load the stack pointer with the top value of the TCB
 1000138:	c6c00017 	ldw	sp,0(et)

0100013c <restore_context>:

restore_context:
	ldw		ra, 0(sp)		# Restore the registers.
 100013c:	dfc00017 	ldw	ra,0(sp)
							# Leave a gap for muldiv 0.
	ldw		at, 8(sp)
 1000140:	d8400217 	ldw	at,8(sp)
	ldw		r2, 12(sp)
 1000144:	d8800317 	ldw	r2,12(sp)
	ldw		r3, 16(sp)
 1000148:	d8c00417 	ldw	r3,16(sp)
	ldw		r4, 20(sp)
 100014c:	d9000517 	ldw	r4,20(sp)
	ldw		r5, 24(sp) 
 1000150:	d9400617 	ldw	r5,24(sp)
	ldw		r6, 28(sp) 
 1000154:	d9800717 	ldw	r6,28(sp)
	ldw		r7, 32(sp) 
 1000158:	d9c00817 	ldw	r7,32(sp)
	ldw		r8, 36(sp) 
 100015c:	da000917 	ldw	r8,36(sp)
	ldw		r9, 40(sp) 
 1000160:	da400a17 	ldw	r9,40(sp)
	ldw		r10, 44(sp)
 1000164:	da800b17 	ldw	r10,44(sp)
	ldw		r11, 48(sp)
 1000168:	dac00c17 	ldw	r11,48(sp)
	ldw		r12, 52(sp)
 100016c:	db000d17 	ldw	r12,52(sp)
	ldw		r13, 56(sp)
 1000170:	db400e17 	ldw	r13,56(sp)
	ldw		r14, 60(sp)
 1000174:	db800f17 	ldw	r14,60(sp)
	ldw		r15, 64(sp)
 1000178:	dbc01017 	ldw	r15,64(sp)
	ldw		et, 68(sp)		# Load the eStatus
 100017c:	de001117 	ldw	et,68(sp)
	wrctl	estatus, et 	# Write the eStatus
 1000180:	c001707a 	wrctl	estatus,et
	ldw		ea, 72(sp)		# Load the Program Counter
 1000184:	df401217 	ldw	ea,72(sp)
	ldw		r16, 76(sp)
 1000188:	dc001317 	ldw	r16,76(sp)
	ldw		r17, 80(sp)
 100018c:	dc401417 	ldw	r17,80(sp)
	ldw		r18, 84(sp)
 1000190:	dc801517 	ldw	r18,84(sp)
	ldw		r19, 88(sp)
 1000194:	dcc01617 	ldw	r19,88(sp)
	ldw		r20, 92(sp)
 1000198:	dd001717 	ldw	r20,92(sp)
	ldw		r21, 96(sp)
 100019c:	dd401817 	ldw	r21,96(sp)
	ldw		r22, 100(sp)
 10001a0:	dd801917 	ldw	r22,100(sp)
	ldw		r23, 104(sp)
 10001a4:	ddc01a17 	ldw	r23,104(sp)
	ldw		gp, 108(sp)
 10001a8:	de801b17 	ldw	gp,108(sp)
	ldw		fp, 112(sp)
 10001ac:	df001c17 	ldw	fp,112(sp)
	addi	sp,	sp, 116		# Release stack space
 10001b0:	dec01d04 	addi	sp,sp,116

    eret					# Return to address ea, loading eStatus into Status.
 10001b4:	ef80083a 	eret

        .section .exceptions.irqreturn, "xa"

        br    .Lexception_exit
 10001b8:	00001206 	br	1000204 <call_scheduler+0x24>
         * upon completion, so we write ea (address of instruction *after*
         * the one where the exception occured) into 72(sp). The actual
         * instruction that caused the exception is written in r2, which these
         * handlers will utilize.
         */
        stw ea, 72(sp) /* EA is PC+4 so will skip over instruction causing exception */
 10001bc:	df401215 	stw	ea,72(sp)
.Lunknown_16bit:
        addi.n r4, r4, 2 /* Need PC+2 to skip over instruction causing exception */
        stw r4, 72(sp)

#else /* CDX is not Enabled and all instructions are 32bits */
        ldw r2, -4(ea) /* Instruction value that caused exception */
 10001c0:	e8bfff17 	ldw	r2,-4(ea)

010001c4 <soft_exceptions>:
   
	.section .exceptions.soft, "xa"
soft_exceptions:
	ldw		et, 0(ea)				# Load the instruction where the interrupt occured.
 10001c4:	ee000017 	ldw	et,0(ea)
	movhi	at, %hi(0x003B683A)		# Load the registers with the trap instruction code
 10001c8:	00400ef4 	movhi	at,59
	ori		at, at, %lo(0x003B683A)
 10001cc:	085a0e94 	ori	at,at,26682
   	cmpne	et, et, at				# Compare the trap instruction code to the last excuted instruction
 10001d0:	c070c03a 	cmpne	et,et,at
  	beq		et, r0, call_scheduler	# its a trap so switchcontext
 10001d4:	c0000226 	beq	et,zero,10001e0 <call_scheduler>
  	break							# This is an un-implemented instruction or muldiv problem.
 10001d8:	003da03a 	break	0
  	br		restore_context			# its something else
 10001dc:	003fd706 	br	100013c <__alt_data_end+0xff00013c>

010001e0 <call_scheduler>:

call_scheduler:
	addi	ea, ea, 4						# A trap was called, increment the program counter so it is not called again.
 10001e0:	ef400104 	addi	ea,ea,4
	stw		ea, 72(sp)						# Save the new program counter to the context.
 10001e4:	df401215 	stw	ea,72(sp)
	call	vTaskSwitchContext				# Pick the next context.
 10001e8:	10047440 	call	1004744 <vTaskSwitchContext>
	br		restore_sp_from_pxCurrentTCB	# Switch in the task context and restore. 
 10001ec:	003fcf06 	br	100012c <__alt_data_end+0xff00012c>
         * debugger is present) or go into an infinite loop since the
         * handling behavior is undefined; in that case we will not return here.
         */

        /* Load exception-causing address as first argument (r4) */
        addi   r4, ea, -4
 10001f0:	e93fff04 	addi	r4,ea,-4

        /* Call the instruction-exception entry */
        call   alt_instruction_exception_entry
 10001f4:	100032c0 	call	100032c <alt_instruction_exception_entry>
         * instruction
         *
         * Return code was 0: Skip. The instruction after the exception is
         * already stored in 72(sp).
         */
        bne   r2, r0, .Lexception_exit
 10001f8:	1000021e 	bne	r2,zero,1000204 <call_scheduler+0x24>

        /*
         * Otherwise, modify 72(sp) to re-issue the instruction that caused the
         * exception.
         */
        addi  r15, ea, -4  /* instruction that caused exception */
 10001fc:	ebffff04 	addi	r15,ea,-4
        stw   r15,  72(sp)
 1000200:	dbc01215 	stw	r15,72(sp)
        /* 
         * Restore the saved registers, so that all general purpose registers 
         * have been restored to their state at the time the interrupt occured.
         */

        ldw   r5,  68(sp)
 1000204:	d9401117 	ldw	r5,68(sp)
        ldw   ea,  72(sp)  /* This becomes the PC once eret is executed */
 1000208:	df401217 	ldw	ea,72(sp)
        ldw   ra,   0(sp)
 100020c:	dfc00017 	ldw	ra,0(sp)

        wrctl estatus, r5
 1000210:	2801707a 	wrctl	estatus,r5

        ldw   r1,   8(sp)
 1000214:	d8400217 	ldw	at,8(sp)
        ldw   r2,  12(sp)
 1000218:	d8800317 	ldw	r2,12(sp)
        ldw   r3,  16(sp)
 100021c:	d8c00417 	ldw	r3,16(sp)
        ldw   r4,  20(sp)
 1000220:	d9000517 	ldw	r4,20(sp)
        ldw   r5,  24(sp)
 1000224:	d9400617 	ldw	r5,24(sp)
        ldw   r6,  28(sp)
 1000228:	d9800717 	ldw	r6,28(sp)
        ldw   r7,  32(sp)
 100022c:	d9c00817 	ldw	r7,32(sp)

#if defined(ALT_EXCEPTION_STACK) && defined(ALT_STACK_CHECK)
        ldw   et, %gprel(alt_exception_old_stack_limit)(gp)
#endif

        ldw   r8,  36(sp)
 1000230:	da000917 	ldw	r8,36(sp)
        ldw   r9,  40(sp)
 1000234:	da400a17 	ldw	r9,40(sp)
        ldw   r10, 44(sp)
 1000238:	da800b17 	ldw	r10,44(sp)
        ldw   r11, 48(sp)
 100023c:	dac00c17 	ldw	r11,48(sp)
        ldw   r12, 52(sp)
 1000240:	db000d17 	ldw	r12,52(sp)
        ldw   r13, 56(sp)
 1000244:	db400e17 	ldw	r13,56(sp)
        ldw   r14, 60(sp)
 1000248:	db800f17 	ldw	r14,60(sp)
        ldw   r15, 64(sp)
 100024c:	dbc01017 	ldw	r15,64(sp)
        stw   et, %gprel(alt_stack_limit_value)(gp)
        stw   zero, %gprel(alt_exception_old_stack_limit)(gp)
#endif /* ALT_STACK_CHECK */
        ldw   sp,  76(sp)
#else /* ALT_EXCEPTION_STACK disabled */
        addi  sp, sp, 76
 1000250:	dec01304 	addi	sp,sp,76

        /*
         * Return to the interrupted instruction.
         */

        eret
 1000254:	ef80083a 	eret

01000258 <alt_irq_handler>:
 * instruction is present if the macro ALT_CI_INTERRUPT_VECTOR defined.
 */

void alt_irq_handler (void) __attribute__ ((section (".exceptions")));
void alt_irq_handler (void)
{
 1000258:	defff904 	addi	sp,sp,-28
 100025c:	dfc00615 	stw	ra,24(sp)
 1000260:	df000515 	stw	fp,20(sp)
 1000264:	df000504 	addi	fp,sp,20
  
  /*
   * Notify the operating system that we are at interrupt level.
   */ 
  
  ALT_OS_INT_ENTER();
 1000268:	0001883a 	nop
#ifndef NIOS2_EIC_PRESENT
static ALT_INLINE alt_u32 ALT_ALWAYS_INLINE alt_irq_pending (void)
{
  alt_u32 active;

  NIOS2_READ_IPENDING (active);
 100026c:	0005313a 	rdctl	r2,ipending
 1000270:	e0bffe15 	stw	r2,-8(fp)

  return active;
 1000274:	e0bffe17 	ldw	r2,-8(fp)
   * Consider the case where the high priority interupt is asserted during
   * the interrupt entry sequence for a lower priority interrupt to see why
   * this is the case.
   */

  active = alt_irq_pending ();
 1000278:	e0bffb15 	stw	r2,-20(fp)

  do
  {
    i = 0;
 100027c:	e03ffd15 	stw	zero,-12(fp)
    mask = 1;
 1000280:	00800044 	movi	r2,1
 1000284:	e0bffc15 	stw	r2,-16(fp)
     * called to clear the interrupt condition.
     */

    do
    {
      if (active & mask)
 1000288:	e0fffb17 	ldw	r3,-20(fp)
 100028c:	e0bffc17 	ldw	r2,-16(fp)
 1000290:	1884703a 	and	r2,r3,r2
 1000294:	10001426 	beq	r2,zero,10002e8 <alt_irq_handler+0x90>
      { 
#ifdef ALT_ENHANCED_INTERRUPT_API_PRESENT
        alt_irq[i].handler(alt_irq[i].context); 
 1000298:	008060b4 	movhi	r2,386
 100029c:	10bb4c04 	addi	r2,r2,-4816
 10002a0:	e0fffd17 	ldw	r3,-12(fp)
 10002a4:	180690fa 	slli	r3,r3,3
 10002a8:	10c5883a 	add	r2,r2,r3
 10002ac:	10c00017 	ldw	r3,0(r2)
 10002b0:	008060b4 	movhi	r2,386
 10002b4:	10bb4c04 	addi	r2,r2,-4816
 10002b8:	e13ffd17 	ldw	r4,-12(fp)
 10002bc:	200890fa 	slli	r4,r4,3
 10002c0:	1105883a 	add	r2,r2,r4
 10002c4:	10800104 	addi	r2,r2,4
 10002c8:	10800017 	ldw	r2,0(r2)
 10002cc:	1009883a 	mov	r4,r2
 10002d0:	183ee83a 	callr	r3
#else
        alt_irq[i].handler(alt_irq[i].context, i); 
#endif
        break;
 10002d4:	0001883a 	nop
#ifndef NIOS2_EIC_PRESENT
static ALT_INLINE alt_u32 ALT_ALWAYS_INLINE alt_irq_pending (void)
{
  alt_u32 active;

  NIOS2_READ_IPENDING (active);
 10002d8:	0005313a 	rdctl	r2,ipending
 10002dc:	e0bfff15 	stw	r2,-4(fp)

  return active;
 10002e0:	e0bfff17 	ldw	r2,-4(fp)
 10002e4:	00000706 	br	1000304 <alt_irq_handler+0xac>
      }
      mask <<= 1;
 10002e8:	e0bffc17 	ldw	r2,-16(fp)
 10002ec:	1085883a 	add	r2,r2,r2
 10002f0:	e0bffc15 	stw	r2,-16(fp)
      i++;
 10002f4:	e0bffd17 	ldw	r2,-12(fp)
 10002f8:	10800044 	addi	r2,r2,1
 10002fc:	e0bffd15 	stw	r2,-12(fp)

    } while (1);
 1000300:	003fe106 	br	1000288 <__alt_data_end+0xff000288>

    active = alt_irq_pending ();
 1000304:	e0bffb15 	stw	r2,-20(fp)
    
  } while (active);
 1000308:	e0bffb17 	ldw	r2,-20(fp)
 100030c:	103fdb1e 	bne	r2,zero,100027c <__alt_data_end+0xff00027c>

  /*
   * Notify the operating system that interrupt processing is complete.
   */ 

  ALT_OS_INT_EXIT();
 1000310:	0001883a 	nop
}
 1000314:	0001883a 	nop
 1000318:	e037883a 	mov	sp,fp
 100031c:	dfc00117 	ldw	ra,4(sp)
 1000320:	df000017 	ldw	fp,0(sp)
 1000324:	dec00204 	addi	sp,sp,8
 1000328:	f800283a 	ret

0100032c <alt_instruction_exception_entry>:
 * that handler if it has been registered. Absent a handler, it will
 * break break or hang as discussed below.
 */
int 
alt_instruction_exception_entry (alt_u32 exception_pc)
{
 100032c:	defffb04 	addi	sp,sp,-20
 1000330:	dfc00415 	stw	ra,16(sp)
 1000334:	df000315 	stw	fp,12(sp)
 1000338:	df000304 	addi	fp,sp,12
 100033c:	e13fff15 	stw	r4,-4(fp)
 * NIOS2_EXCEPTION_CAUSE_NOT_PRESENT. Your handling routine should
 * check the validity of the cause argument before proceeding.
 */
#ifdef NIOS2_HAS_EXTRA_EXCEPTION_INFO
  /* Get exception cause & "badaddr" */
  NIOS2_READ_EXCEPTION(cause);
 1000340:	000531fa 	rdctl	r2,exception
 1000344:	e0bffd15 	stw	r2,-12(fp)
  cause = ( (cause & NIOS2_EXCEPTION_REG_CAUSE_MASK) >>
 1000348:	e0bffd17 	ldw	r2,-12(fp)
 100034c:	10801f0c 	andi	r2,r2,124
 1000350:	1004d0ba 	srli	r2,r2,2
 1000354:	e0bffd15 	stw	r2,-12(fp)
              NIOS2_EXCEPTION_REG_CAUSE_OFST );

  NIOS2_READ_BADADDR(badaddr);
 1000358:	0005333a 	rdctl	r2,badaddr
 100035c:	e0bffe15 	stw	r2,-8(fp)
#else
  cause = NIOS2_EXCEPTION_CAUSE_NOT_PRESENT;
  badaddr = 0;
#endif /* NIOS2_HAS_EXTRA_EXCEPTION_INFO */

  if(alt_instruction_exception_handler) {
 1000360:	d0a73017 	ldw	r2,-25408(gp)
 1000364:	10000726 	beq	r2,zero,1000384 <alt_instruction_exception_entry+0x58>
     * Call handler. Its return value indicates whether the exception-causing
     * instruction should be re-issued. The code that called us,
     * alt_eceptions_entry.S, will look at this value and adjust the ea
     * register as necessary
     */
    return alt_instruction_exception_handler(cause, exception_pc, badaddr);
 1000368:	d0a73017 	ldw	r2,-25408(gp)
 100036c:	e0fffd17 	ldw	r3,-12(fp)
 1000370:	e1bffe17 	ldw	r6,-8(fp)
 1000374:	e17fff17 	ldw	r5,-4(fp)
 1000378:	1809883a 	mov	r4,r3
 100037c:	103ee83a 	callr	r2
 1000380:	00000206 	br	100038c <alt_instruction_exception_entry+0x60>
   *    (a peripheral which negates its interrupt output before its
   *    interrupt handler has been executed will cause spurious interrupts)
   */
  else {
#ifdef NIOS2_HAS_DEBUG_STUB
    NIOS2_BREAK();
 1000384:	003da03a 	break	0
      ;
#endif /* NIOS2_HAS_DEBUG_STUB */
  }

  /* We should not get here. Remove compiler warning. */
  return NIOS2_EXCEPTION_RETURN_REISSUE_INST;
 1000388:	0005883a 	mov	r2,zero
}
 100038c:	e037883a 	mov	sp,fp
 1000390:	dfc00117 	ldw	ra,4(sp)
 1000394:	df000017 	ldw	fp,0(sp)
 1000398:	dec00204 	addi	sp,sp,8
 100039c:	f800283a 	ret

Disassembly of section .text:

010003a0 <_start>:

    /* Assume the data cache size is always a power of two. */
#if NIOS2_DCACHE_SIZE > 0x8000
    movhi r2, %hi(NIOS2_DCACHE_SIZE)
#else
    movui r2, NIOS2_DCACHE_SIZE
 10003a0:	00820014 	movui	r2,2048
#endif

0:
    initd 0(r2)
 10003a4:	10000033 	initd	0(r2)
#ifdef NIOS2_ECC_PRESENT
    addi r2, r2, -4
#else
    addi r2, r2, -NIOS2_DCACHE_LINE_SIZE
 10003a8:	10bff804 	addi	r2,r2,-32
#endif
    bgt r2, zero, 0b
 10003ac:	00bffd16 	blt	zero,r2,10003a4 <__alt_data_end+0xff0003a4>

    /*
     * Now that the caches are initialized, set up the stack pointer and global pointer.
     * The values provided by the linker are assumed to be correctly aligned.
     */
    movhi sp, %hi(__alt_stack_pointer)
 10003b0:	06c08034 	movhi	sp,512
    ori sp, sp, %lo(__alt_stack_pointer)
 10003b4:	dec00014 	ori	sp,sp,0
    movhi gp, %hi(_gp)
 10003b8:	068040b4 	movhi	gp,258
    ori gp, gp, %lo(_gp)
 10003bc:	d6933714 	ori	gp,gp,19676
 */
#ifndef ALT_SIM_OPTIMIZE
    /* Log that the BSS is about to be cleared. */
    ALT_LOG_PUTS(alt_log_msg_bss)

    movhi r2, %hi(__bss_start)
 10003c0:	00804074 	movhi	r2,257
    ori r2, r2, %lo(__bss_start)
 10003c4:	10ba4514 	ori	r2,r2,59668

    movhi r3, %hi(__bss_end)
 10003c8:	00c06074 	movhi	r3,385
    ori r3, r3, %lo(__bss_end)
 10003cc:	18fb8c14 	ori	r3,r3,60976

    beq r2, r3, 1f
 10003d0:	10c00326 	beq	r2,r3,10003e0 <_start+0x40>

0:
    stw zero, (r2)
 10003d4:	10000015 	stw	zero,0(r2)
    addi r2, r2, 4
 10003d8:	10800104 	addi	r2,r2,4
    bltu r2, r3, 0b
 10003dc:	10fffd36 	bltu	r2,r3,10003d4 <__alt_data_end+0xff0003d4>
     * section aren't defined until alt_load() has been called).
     */
    mov   et, zero
#endif

    call alt_load
 10003e0:	1017b340 	call	1017b34 <alt_load>

    /* Log that alt_main is about to be called. */
    ALT_LOG_PUTS(alt_log_msg_alt_main)

    /* Call the C entry point. It should never return. */
    call alt_main
 10003e4:	1017cc80 	call	1017cc8 <alt_main>

010003e8 <alt_after_alt_main>:

    /* Wait in infinite loop in case alt_main does return. */
alt_after_alt_main:
    br alt_after_alt_main
 10003e8:	003fff06 	br	10003e8 <__alt_data_end+0xff0003e8>

010003ec <xEventGroupCreate>:
/*-----------------------------------------------------------*/

#if( configSUPPORT_DYNAMIC_ALLOCATION == 1 )

	EventGroupHandle_t xEventGroupCreate( void )
	{
 10003ec:	defffd04 	addi	sp,sp,-12
 10003f0:	dfc00215 	stw	ra,8(sp)
 10003f4:	df000115 	stw	fp,4(sp)
 10003f8:	df000104 	addi	fp,sp,4
		TickType_t alignment requirements the cast is safe.  In other cases,
		where the natural word size of the architecture is less than
		sizeof( TickType_t ), the TickType_t variables will be accessed in two
		or more reads operations, and the alignment requirements is only that
		of each individual read. */
		pxEventBits = ( EventGroup_t * ) pvPortMalloc( sizeof( EventGroup_t ) ); /*lint !e9087 !e9079 see comment above. */
 10003fc:	01000604 	movi	r4,24
 1000400:	1000fb00 	call	1000fb0 <pvPortMalloc>
 1000404:	e0bfff15 	stw	r2,-4(fp)

		if( pxEventBits != NULL )
 1000408:	e0bfff17 	ldw	r2,-4(fp)
 100040c:	10000626 	beq	r2,zero,1000428 <xEventGroupCreate+0x3c>
		{
			pxEventBits->uxEventBits = 0;
 1000410:	e0bfff17 	ldw	r2,-4(fp)
 1000414:	10000015 	stw	zero,0(r2)
			vListInitialise( &( pxEventBits->xTasksWaitingForBits ) );
 1000418:	e0bfff17 	ldw	r2,-4(fp)
 100041c:	10800104 	addi	r2,r2,4
 1000420:	1009883a 	mov	r4,r2
 1000424:	1000aec0 	call	1000aec <vListInitialise>
		else
		{
			traceEVENT_GROUP_CREATE_FAILED(); /*lint !e9063 Else branch only exists to allow tracing and does not generate code if trace macros are not defined. */
		}

		return pxEventBits;
 1000428:	e0bfff17 	ldw	r2,-4(fp)
	}
 100042c:	e037883a 	mov	sp,fp
 1000430:	dfc00117 	ldw	ra,4(sp)
 1000434:	df000017 	ldw	fp,0(sp)
 1000438:	dec00204 	addi	sp,sp,8
 100043c:	f800283a 	ret

01000440 <xEventGroupSync>:

#endif /* configSUPPORT_DYNAMIC_ALLOCATION */
/*-----------------------------------------------------------*/

EventBits_t xEventGroupSync( EventGroupHandle_t xEventGroup, const EventBits_t uxBitsToSet, const EventBits_t uxBitsToWaitFor, TickType_t xTicksToWait )
{
 1000440:	defff504 	addi	sp,sp,-44
 1000444:	dfc00a15 	stw	ra,40(sp)
 1000448:	df000915 	stw	fp,36(sp)
 100044c:	df000904 	addi	fp,sp,36
 1000450:	e13ffc15 	stw	r4,-16(fp)
 1000454:	e17ffd15 	stw	r5,-12(fp)
 1000458:	e1bffe15 	stw	r6,-8(fp)
 100045c:	e1ffff15 	stw	r7,-4(fp)
EventBits_t uxOriginalBitValue, uxReturn;
EventGroup_t *pxEventBits = xEventGroup;
 1000460:	e0bffc17 	ldw	r2,-16(fp)
 1000464:	e0bff815 	stw	r2,-32(fp)
BaseType_t xAlreadyYielded;
BaseType_t xTimeoutOccurred = pdFALSE;
 1000468:	e03ff915 	stw	zero,-28(fp)
	{
		configASSERT( !( ( xTaskGetSchedulerState() == taskSCHEDULER_SUSPENDED ) && ( xTicksToWait != 0 ) ) );
	}
	#endif

	vTaskSuspendAll();
 100046c:	100435c0 	call	100435c <vTaskSuspendAll>
	{
		uxOriginalBitValue = pxEventBits->uxEventBits;
 1000470:	e0bff817 	ldw	r2,-32(fp)
 1000474:	10800017 	ldw	r2,0(r2)
 1000478:	e0bffa15 	stw	r2,-24(fp)

		( void ) xEventGroupSetBits( xEventGroup, uxBitsToSet );
 100047c:	e17ffd17 	ldw	r5,-12(fp)
 1000480:	e13ffc17 	ldw	r4,-16(fp)
 1000484:	10008100 	call	1000810 <xEventGroupSetBits>

		if( ( ( uxOriginalBitValue | uxBitsToSet ) & uxBitsToWaitFor ) == uxBitsToWaitFor )
 1000488:	e0fffa17 	ldw	r3,-24(fp)
 100048c:	e0bffd17 	ldw	r2,-12(fp)
 1000490:	1886b03a 	or	r3,r3,r2
 1000494:	e0bffe17 	ldw	r2,-8(fp)
 1000498:	1886703a 	and	r3,r3,r2
 100049c:	e0bffe17 	ldw	r2,-8(fp)
 10004a0:	18800d1e 	bne	r3,r2,10004d8 <xEventGroupSync+0x98>
		{
			/* All the rendezvous bits are now set - no need to block. */
			uxReturn = ( uxOriginalBitValue | uxBitsToSet );
 10004a4:	e0fffa17 	ldw	r3,-24(fp)
 10004a8:	e0bffd17 	ldw	r2,-12(fp)
 10004ac:	1884b03a 	or	r2,r3,r2
 10004b0:	e0bff715 	stw	r2,-36(fp)

			/* Rendezvous always clear the bits.  They will have been cleared
			already unless this is the only task in the rendezvous. */
			pxEventBits->uxEventBits &= ~uxBitsToWaitFor;
 10004b4:	e0bff817 	ldw	r2,-32(fp)
 10004b8:	10c00017 	ldw	r3,0(r2)
 10004bc:	e0bffe17 	ldw	r2,-8(fp)
 10004c0:	0084303a 	nor	r2,zero,r2
 10004c4:	1886703a 	and	r3,r3,r2
 10004c8:	e0bff817 	ldw	r2,-32(fp)
 10004cc:	10c00015 	stw	r3,0(r2)

			xTicksToWait = 0;
 10004d0:	e03fff15 	stw	zero,-4(fp)
 10004d4:	00001106 	br	100051c <xEventGroupSync+0xdc>
		}
		else
		{
			if( xTicksToWait != ( TickType_t ) 0 )
 10004d8:	e0bfff17 	ldw	r2,-4(fp)
 10004dc:	10000a26 	beq	r2,zero,1000508 <xEventGroupSync+0xc8>
				traceEVENT_GROUP_SYNC_BLOCK( xEventGroup, uxBitsToSet, uxBitsToWaitFor );

				/* Store the bits that the calling task is waiting for in the
				task's event list item so the kernel knows when a match is
				found.  Then enter the blocked state. */
				vTaskPlaceOnUnorderedEventList( &( pxEventBits->xTasksWaitingForBits ), ( uxBitsToWaitFor | eventCLEAR_EVENTS_ON_EXIT_BIT | eventWAIT_FOR_ALL_BITS ), xTicksToWait );
 10004e0:	e0bff817 	ldw	r2,-32(fp)
 10004e4:	10c00104 	addi	r3,r2,4
 10004e8:	e0bffe17 	ldw	r2,-8(fp)
 10004ec:	10814034 	orhi	r2,r2,1280
 10004f0:	e1bfff17 	ldw	r6,-4(fp)
 10004f4:	100b883a 	mov	r5,r2
 10004f8:	1809883a 	mov	r4,r3
 10004fc:	100486c0 	call	100486c <vTaskPlaceOnUnorderedEventList>

				/* This assignment is obsolete as uxReturn will get set after
				the task unblocks, but some compilers mistakenly generate a
				warning about uxReturn being returned without being set if the
				assignment is omitted. */
				uxReturn = 0;
 1000500:	e03ff715 	stw	zero,-36(fp)
 1000504:	00000506 	br	100051c <xEventGroupSync+0xdc>
			}
			else
			{
				/* The rendezvous bits were not set, but no block time was
				specified - just return the current event bit value. */
				uxReturn = pxEventBits->uxEventBits;
 1000508:	e0bff817 	ldw	r2,-32(fp)
 100050c:	10800017 	ldw	r2,0(r2)
 1000510:	e0bff715 	stw	r2,-36(fp)
				xTimeoutOccurred = pdTRUE;
 1000514:	00800044 	movi	r2,1
 1000518:	e0bff915 	stw	r2,-28(fp)
			}
		}
	}
	xAlreadyYielded = xTaskResumeAll();
 100051c:	10043880 	call	1004388 <xTaskResumeAll>
 1000520:	e0bffb15 	stw	r2,-20(fp)

	if( xTicksToWait != ( TickType_t ) 0 )
 1000524:	e0bfff17 	ldw	r2,-4(fp)
 1000528:	10002026 	beq	r2,zero,10005ac <xEventGroupSync+0x16c>
	{
		if( xAlreadyYielded == pdFALSE )
 100052c:	e0bffb17 	ldw	r2,-20(fp)
 1000530:	1000011e 	bne	r2,zero,1000538 <xEventGroupSync+0xf8>
		{
			portYIELD_WITHIN_API();
 1000534:	003b683a 	trap	0

		/* The task blocked to wait for its required bits to be set - at this
		point either the required bits were set or the block time expired.  If
		the required bits were set they will have been stored in the task's
		event list item, and they should now be retrieved then cleared. */
		uxReturn = uxTaskResetEventItemValue();
 1000538:	10053240 	call	1005324 <uxTaskResetEventItemValue>
 100053c:	e0bff715 	stw	r2,-36(fp)

		if( ( uxReturn & eventUNBLOCKED_DUE_TO_BIT_SET ) == ( EventBits_t ) 0 )
 1000540:	e0bff717 	ldw	r2,-36(fp)
 1000544:	1080802c 	andhi	r2,r2,512
 1000548:	1000131e 	bne	r2,zero,1000598 <xEventGroupSync+0x158>
		{
			/* The task timed out, just return the current event bit value. */
			taskENTER_CRITICAL();
 100054c:	10052700 	call	1005270 <vTaskEnterCritical>
			{
				uxReturn = pxEventBits->uxEventBits;
 1000550:	e0bff817 	ldw	r2,-32(fp)
 1000554:	10800017 	ldw	r2,0(r2)
 1000558:	e0bff715 	stw	r2,-36(fp)

				/* Although the task got here because it timed out before the
				bits it was waiting for were set, it is possible that since it
				unblocked another task has set the bits.  If this is the case
				then it needs to clear the bits before exiting. */
				if( ( uxReturn & uxBitsToWaitFor ) == uxBitsToWaitFor )
 100055c:	e0fff717 	ldw	r3,-36(fp)
 1000560:	e0bffe17 	ldw	r2,-8(fp)
 1000564:	1886703a 	and	r3,r3,r2
 1000568:	e0bffe17 	ldw	r2,-8(fp)
 100056c:	1880071e 	bne	r3,r2,100058c <xEventGroupSync+0x14c>
				{
					pxEventBits->uxEventBits &= ~uxBitsToWaitFor;
 1000570:	e0bff817 	ldw	r2,-32(fp)
 1000574:	10c00017 	ldw	r3,0(r2)
 1000578:	e0bffe17 	ldw	r2,-8(fp)
 100057c:	0084303a 	nor	r2,zero,r2
 1000580:	1886703a 	and	r3,r3,r2
 1000584:	e0bff817 	ldw	r2,-32(fp)
 1000588:	10c00015 	stw	r3,0(r2)
				else
				{
					mtCOVERAGE_TEST_MARKER();
				}
			}
			taskEXIT_CRITICAL();
 100058c:	10052c40 	call	10052c4 <vTaskExitCritical>

			xTimeoutOccurred = pdTRUE;
 1000590:	00800044 	movi	r2,1
 1000594:	e0bff915 	stw	r2,-28(fp)
			/* The task unblocked because the bits were set. */
		}

		/* Control bits might be set as the task had blocked should not be
		returned. */
		uxReturn &= ~eventEVENT_BITS_CONTROL_BYTES;
 1000598:	e0fff717 	ldw	r3,-36(fp)
 100059c:	00804034 	movhi	r2,256
 10005a0:	10bfffc4 	addi	r2,r2,-1
 10005a4:	1884703a 	and	r2,r3,r2
 10005a8:	e0bff715 	stw	r2,-36(fp)
	traceEVENT_GROUP_SYNC_END( xEventGroup, uxBitsToSet, uxBitsToWaitFor, xTimeoutOccurred );

	/* Prevent compiler warnings when trace macros are not used. */
	( void ) xTimeoutOccurred;

	return uxReturn;
 10005ac:	e0bff717 	ldw	r2,-36(fp)
}
 10005b0:	e037883a 	mov	sp,fp
 10005b4:	dfc00117 	ldw	ra,4(sp)
 10005b8:	df000017 	ldw	fp,0(sp)
 10005bc:	dec00204 	addi	sp,sp,8
 10005c0:	f800283a 	ret

010005c4 <xEventGroupWaitBits>:
/*-----------------------------------------------------------*/

EventBits_t xEventGroupWaitBits( EventGroupHandle_t xEventGroup, const EventBits_t uxBitsToWaitFor, const BaseType_t xClearOnExit, const BaseType_t xWaitForAllBits, TickType_t xTicksToWait )
{
 10005c4:	defff304 	addi	sp,sp,-52
 10005c8:	dfc00c15 	stw	ra,48(sp)
 10005cc:	df000b15 	stw	fp,44(sp)
 10005d0:	df000b04 	addi	fp,sp,44
 10005d4:	e13ffc15 	stw	r4,-16(fp)
 10005d8:	e17ffd15 	stw	r5,-12(fp)
 10005dc:	e1bffe15 	stw	r6,-8(fp)
 10005e0:	e1ffff15 	stw	r7,-4(fp)
EventGroup_t *pxEventBits = xEventGroup;
 10005e4:	e0bffc17 	ldw	r2,-16(fp)
 10005e8:	e0bff715 	stw	r2,-36(fp)
EventBits_t uxReturn, uxControlBits = 0;
 10005ec:	e03ff615 	stw	zero,-40(fp)
BaseType_t xWaitConditionMet, xAlreadyYielded;
BaseType_t xTimeoutOccurred = pdFALSE;
 10005f0:	e03ff815 	stw	zero,-32(fp)
	{
		configASSERT( !( ( xTaskGetSchedulerState() == taskSCHEDULER_SUSPENDED ) && ( xTicksToWait != 0 ) ) );
	}
	#endif

	vTaskSuspendAll();
 10005f4:	100435c0 	call	100435c <vTaskSuspendAll>
	{
		const EventBits_t uxCurrentEventBits = pxEventBits->uxEventBits;
 10005f8:	e0bff717 	ldw	r2,-36(fp)
 10005fc:	10800017 	ldw	r2,0(r2)
 1000600:	e0bff915 	stw	r2,-28(fp)

		/* Check to see if the wait condition is already met or not. */
		xWaitConditionMet = prvTestWaitCondition( uxCurrentEventBits, uxBitsToWaitFor, xWaitForAllBits );
 1000604:	e1bfff17 	ldw	r6,-4(fp)
 1000608:	e17ffd17 	ldw	r5,-12(fp)
 100060c:	e13ff917 	ldw	r4,-28(fp)
 1000610:	1000a7c0 	call	1000a7c <prvTestWaitCondition>
 1000614:	e0bffa15 	stw	r2,-24(fp)

		if( xWaitConditionMet != pdFALSE )
 1000618:	e0bffa17 	ldw	r2,-24(fp)
 100061c:	10000d26 	beq	r2,zero,1000654 <xEventGroupWaitBits+0x90>
		{
			/* The wait condition has already been met so there is no need to
			block. */
			uxReturn = uxCurrentEventBits;
 1000620:	e0bff917 	ldw	r2,-28(fp)
 1000624:	e0bff515 	stw	r2,-44(fp)
			xTicksToWait = ( TickType_t ) 0;
 1000628:	e0000215 	stw	zero,8(fp)

			/* Clear the wait bits if requested to do so. */
			if( xClearOnExit != pdFALSE )
 100062c:	e0bffe17 	ldw	r2,-8(fp)
 1000630:	10002226 	beq	r2,zero,10006bc <xEventGroupWaitBits+0xf8>
			{
				pxEventBits->uxEventBits &= ~uxBitsToWaitFor;
 1000634:	e0bff717 	ldw	r2,-36(fp)
 1000638:	10c00017 	ldw	r3,0(r2)
 100063c:	e0bffd17 	ldw	r2,-12(fp)
 1000640:	0084303a 	nor	r2,zero,r2
 1000644:	1886703a 	and	r3,r3,r2
 1000648:	e0bff717 	ldw	r2,-36(fp)
 100064c:	10c00015 	stw	r3,0(r2)
 1000650:	00001a06 	br	10006bc <xEventGroupWaitBits+0xf8>
			else
			{
				mtCOVERAGE_TEST_MARKER();
			}
		}
		else if( xTicksToWait == ( TickType_t ) 0 )
 1000654:	e0800217 	ldw	r2,8(fp)
 1000658:	1000051e 	bne	r2,zero,1000670 <xEventGroupWaitBits+0xac>
		{
			/* The wait condition has not been met, but no block time was
			specified, so just return the current value. */
			uxReturn = uxCurrentEventBits;
 100065c:	e0bff917 	ldw	r2,-28(fp)
 1000660:	e0bff515 	stw	r2,-44(fp)
			xTimeoutOccurred = pdTRUE;
 1000664:	00800044 	movi	r2,1
 1000668:	e0bff815 	stw	r2,-32(fp)
 100066c:	00001306 	br	10006bc <xEventGroupWaitBits+0xf8>
		{
			/* The task is going to block to wait for its required bits to be
			set.  uxControlBits are used to remember the specified behaviour of
			this call to xEventGroupWaitBits() - for use when the event bits
			unblock the task. */
			if( xClearOnExit != pdFALSE )
 1000670:	e0bffe17 	ldw	r2,-8(fp)
 1000674:	10000326 	beq	r2,zero,1000684 <xEventGroupWaitBits+0xc0>
			{
				uxControlBits |= eventCLEAR_EVENTS_ON_EXIT_BIT;
 1000678:	e0bff617 	ldw	r2,-40(fp)
 100067c:	10804034 	orhi	r2,r2,256
 1000680:	e0bff615 	stw	r2,-40(fp)
			else
			{
				mtCOVERAGE_TEST_MARKER();
			}

			if( xWaitForAllBits != pdFALSE )
 1000684:	e0bfff17 	ldw	r2,-4(fp)
 1000688:	10000326 	beq	r2,zero,1000698 <xEventGroupWaitBits+0xd4>
			{
				uxControlBits |= eventWAIT_FOR_ALL_BITS;
 100068c:	e0bff617 	ldw	r2,-40(fp)
 1000690:	10810034 	orhi	r2,r2,1024
 1000694:	e0bff615 	stw	r2,-40(fp)
			}

			/* Store the bits that the calling task is waiting for in the
			task's event list item so the kernel knows when a match is
			found.  Then enter the blocked state. */
			vTaskPlaceOnUnorderedEventList( &( pxEventBits->xTasksWaitingForBits ), ( uxBitsToWaitFor | uxControlBits ), xTicksToWait );
 1000698:	e0bff717 	ldw	r2,-36(fp)
 100069c:	11000104 	addi	r4,r2,4
 10006a0:	e0fffd17 	ldw	r3,-12(fp)
 10006a4:	e0bff617 	ldw	r2,-40(fp)
 10006a8:	1884b03a 	or	r2,r3,r2
 10006ac:	e1800217 	ldw	r6,8(fp)
 10006b0:	100b883a 	mov	r5,r2
 10006b4:	100486c0 	call	100486c <vTaskPlaceOnUnorderedEventList>

			/* This is obsolete as it will get set after the task unblocks, but
			some compilers mistakenly generate a warning about the variable
			being returned without being set if it is not done. */
			uxReturn = 0;
 10006b8:	e03ff515 	stw	zero,-44(fp)

			traceEVENT_GROUP_WAIT_BITS_BLOCK( xEventGroup, uxBitsToWaitFor );
		}
	}
	xAlreadyYielded = xTaskResumeAll();
 10006bc:	10043880 	call	1004388 <xTaskResumeAll>
 10006c0:	e0bffb15 	stw	r2,-20(fp)

	if( xTicksToWait != ( TickType_t ) 0 )
 10006c4:	e0800217 	ldw	r2,8(fp)
 10006c8:	10002226 	beq	r2,zero,1000754 <xEventGroupWaitBits+0x190>
	{
		if( xAlreadyYielded == pdFALSE )
 10006cc:	e0bffb17 	ldw	r2,-20(fp)
 10006d0:	1000011e 	bne	r2,zero,10006d8 <xEventGroupWaitBits+0x114>
		{
			portYIELD_WITHIN_API();
 10006d4:	003b683a 	trap	0

		/* The task blocked to wait for its required bits to be set - at this
		point either the required bits were set or the block time expired.  If
		the required bits were set they will have been stored in the task's
		event list item, and they should now be retrieved then cleared. */
		uxReturn = uxTaskResetEventItemValue();
 10006d8:	10053240 	call	1005324 <uxTaskResetEventItemValue>
 10006dc:	e0bff515 	stw	r2,-44(fp)

		if( ( uxReturn & eventUNBLOCKED_DUE_TO_BIT_SET ) == ( EventBits_t ) 0 )
 10006e0:	e0bff517 	ldw	r2,-44(fp)
 10006e4:	1080802c 	andhi	r2,r2,512
 10006e8:	1000151e 	bne	r2,zero,1000740 <xEventGroupWaitBits+0x17c>
		{
			taskENTER_CRITICAL();
 10006ec:	10052700 	call	1005270 <vTaskEnterCritical>
			{
				/* The task timed out, just return the current event bit value. */
				uxReturn = pxEventBits->uxEventBits;
 10006f0:	e0bff717 	ldw	r2,-36(fp)
 10006f4:	10800017 	ldw	r2,0(r2)
 10006f8:	e0bff515 	stw	r2,-44(fp)

				/* It is possible that the event bits were updated between this
				task leaving the Blocked state and running again. */
				if( prvTestWaitCondition( uxReturn, uxBitsToWaitFor, xWaitForAllBits ) != pdFALSE )
 10006fc:	e1bfff17 	ldw	r6,-4(fp)
 1000700:	e17ffd17 	ldw	r5,-12(fp)
 1000704:	e13ff517 	ldw	r4,-44(fp)
 1000708:	1000a7c0 	call	1000a7c <prvTestWaitCondition>
 100070c:	10000926 	beq	r2,zero,1000734 <xEventGroupWaitBits+0x170>
				{
					if( xClearOnExit != pdFALSE )
 1000710:	e0bffe17 	ldw	r2,-8(fp)
 1000714:	10000726 	beq	r2,zero,1000734 <xEventGroupWaitBits+0x170>
					{
						pxEventBits->uxEventBits &= ~uxBitsToWaitFor;
 1000718:	e0bff717 	ldw	r2,-36(fp)
 100071c:	10c00017 	ldw	r3,0(r2)
 1000720:	e0bffd17 	ldw	r2,-12(fp)
 1000724:	0084303a 	nor	r2,zero,r2
 1000728:	1886703a 	and	r3,r3,r2
 100072c:	e0bff717 	ldw	r2,-36(fp)
 1000730:	10c00015 	stw	r3,0(r2)
				}
				else
				{
					mtCOVERAGE_TEST_MARKER();
				}
				xTimeoutOccurred = pdTRUE;
 1000734:	00800044 	movi	r2,1
 1000738:	e0bff815 	stw	r2,-32(fp)
			}
			taskEXIT_CRITICAL();
 100073c:	10052c40 	call	10052c4 <vTaskExitCritical>
		{
			/* The task unblocked because the bits were set. */
		}

		/* The task blocked so control bits may have been set. */
		uxReturn &= ~eventEVENT_BITS_CONTROL_BYTES;
 1000740:	e0fff517 	ldw	r3,-44(fp)
 1000744:	00804034 	movhi	r2,256
 1000748:	10bfffc4 	addi	r2,r2,-1
 100074c:	1884703a 	and	r2,r3,r2
 1000750:	e0bff515 	stw	r2,-44(fp)
	traceEVENT_GROUP_WAIT_BITS_END( xEventGroup, uxBitsToWaitFor, xTimeoutOccurred );

	/* Prevent compiler warnings when trace macros are not used. */
	( void ) xTimeoutOccurred;

	return uxReturn;
 1000754:	e0bff517 	ldw	r2,-44(fp)
}
 1000758:	e037883a 	mov	sp,fp
 100075c:	dfc00117 	ldw	ra,4(sp)
 1000760:	df000017 	ldw	fp,0(sp)
 1000764:	dec00204 	addi	sp,sp,8
 1000768:	f800283a 	ret

0100076c <xEventGroupClearBits>:
/*-----------------------------------------------------------*/

EventBits_t xEventGroupClearBits( EventGroupHandle_t xEventGroup, const EventBits_t uxBitsToClear )
{
 100076c:	defffa04 	addi	sp,sp,-24
 1000770:	dfc00515 	stw	ra,20(sp)
 1000774:	df000415 	stw	fp,16(sp)
 1000778:	df000404 	addi	fp,sp,16
 100077c:	e13ffe15 	stw	r4,-8(fp)
 1000780:	e17fff15 	stw	r5,-4(fp)
EventGroup_t *pxEventBits = xEventGroup;
 1000784:	e0bffe17 	ldw	r2,-8(fp)
 1000788:	e0bffc15 	stw	r2,-16(fp)
	/* Check the user is not attempting to clear the bits used by the kernel
	itself. */
	configASSERT( xEventGroup );
	configASSERT( ( uxBitsToClear & eventEVENT_BITS_CONTROL_BYTES ) == 0 );

	taskENTER_CRITICAL();
 100078c:	10052700 	call	1005270 <vTaskEnterCritical>
	{
		traceEVENT_GROUP_CLEAR_BITS( xEventGroup, uxBitsToClear );

		/* The value returned is the event group value prior to the bits being
		cleared. */
		uxReturn = pxEventBits->uxEventBits;
 1000790:	e0bffc17 	ldw	r2,-16(fp)
 1000794:	10800017 	ldw	r2,0(r2)
 1000798:	e0bffd15 	stw	r2,-12(fp)

		/* Clear the bits. */
		pxEventBits->uxEventBits &= ~uxBitsToClear;
 100079c:	e0bffc17 	ldw	r2,-16(fp)
 10007a0:	10c00017 	ldw	r3,0(r2)
 10007a4:	e0bfff17 	ldw	r2,-4(fp)
 10007a8:	0084303a 	nor	r2,zero,r2
 10007ac:	1886703a 	and	r3,r3,r2
 10007b0:	e0bffc17 	ldw	r2,-16(fp)
 10007b4:	10c00015 	stw	r3,0(r2)
	}
	taskEXIT_CRITICAL();
 10007b8:	10052c40 	call	10052c4 <vTaskExitCritical>

	return uxReturn;
 10007bc:	e0bffd17 	ldw	r2,-12(fp)
}
 10007c0:	e037883a 	mov	sp,fp
 10007c4:	dfc00117 	ldw	ra,4(sp)
 10007c8:	df000017 	ldw	fp,0(sp)
 10007cc:	dec00204 	addi	sp,sp,8
 10007d0:	f800283a 	ret

010007d4 <xEventGroupGetBitsFromISR>:

#endif
/*-----------------------------------------------------------*/

EventBits_t xEventGroupGetBitsFromISR( EventGroupHandle_t xEventGroup )
{
 10007d4:	defffb04 	addi	sp,sp,-20
 10007d8:	df000415 	stw	fp,16(sp)
 10007dc:	df000404 	addi	fp,sp,16
 10007e0:	e13fff15 	stw	r4,-4(fp)
UBaseType_t uxSavedInterruptStatus;
EventGroup_t const * const pxEventBits = xEventGroup;
 10007e4:	e0bfff17 	ldw	r2,-4(fp)
 10007e8:	e0bffc15 	stw	r2,-16(fp)
EventBits_t uxReturn;

	uxSavedInterruptStatus = portSET_INTERRUPT_MASK_FROM_ISR();
 10007ec:	e03ffd15 	stw	zero,-12(fp)
	{
		uxReturn = pxEventBits->uxEventBits;
 10007f0:	e0bffc17 	ldw	r2,-16(fp)
 10007f4:	10800017 	ldw	r2,0(r2)
 10007f8:	e0bffe15 	stw	r2,-8(fp)
	}
	portCLEAR_INTERRUPT_MASK_FROM_ISR( uxSavedInterruptStatus );

	return uxReturn;
 10007fc:	e0bffe17 	ldw	r2,-8(fp)
} /*lint !e818 EventGroupHandle_t is a typedef used in other functions to so can't be pointer to const. */
 1000800:	e037883a 	mov	sp,fp
 1000804:	df000017 	ldw	fp,0(sp)
 1000808:	dec00104 	addi	sp,sp,4
 100080c:	f800283a 	ret

01000810 <xEventGroupSetBits>:
/*-----------------------------------------------------------*/

EventBits_t xEventGroupSetBits( EventGroupHandle_t xEventGroup, const EventBits_t uxBitsToSet )
{
 1000810:	defff304 	addi	sp,sp,-52
 1000814:	dfc00c15 	stw	ra,48(sp)
 1000818:	df000b15 	stw	fp,44(sp)
 100081c:	df000b04 	addi	fp,sp,44
 1000820:	e13ffe15 	stw	r4,-8(fp)
 1000824:	e17fff15 	stw	r5,-4(fp)
ListItem_t *pxListItem, *pxNext;
ListItem_t const *pxListEnd;
List_t const * pxList;
EventBits_t uxBitsToClear = 0, uxBitsWaitedFor, uxControlBits;
 1000828:	e03ff615 	stw	zero,-40(fp)
EventGroup_t *pxEventBits = xEventGroup;
 100082c:	e0bffe17 	ldw	r2,-8(fp)
 1000830:	e0bff815 	stw	r2,-32(fp)
BaseType_t xMatchFound = pdFALSE;
 1000834:	e03ff715 	stw	zero,-36(fp)
	/* Check the user is not attempting to set the bits used by the kernel
	itself. */
	configASSERT( xEventGroup );
	configASSERT( ( uxBitsToSet & eventEVENT_BITS_CONTROL_BYTES ) == 0 );

	pxList = &( pxEventBits->xTasksWaitingForBits );
 1000838:	e0bff817 	ldw	r2,-32(fp)
 100083c:	10800104 	addi	r2,r2,4
 1000840:	e0bff915 	stw	r2,-28(fp)
	pxListEnd = listGET_END_MARKER( pxList ); /*lint !e826 !e740 !e9087 The mini list structure is used as the list end to save RAM.  This is checked and valid. */
 1000844:	e0bff917 	ldw	r2,-28(fp)
 1000848:	10800204 	addi	r2,r2,8
 100084c:	e0bffa15 	stw	r2,-24(fp)
	vTaskSuspendAll();
 1000850:	100435c0 	call	100435c <vTaskSuspendAll>
	{
		traceEVENT_GROUP_SET_BITS( xEventGroup, uxBitsToSet );

		pxListItem = listGET_HEAD_ENTRY( pxList );
 1000854:	e0bff917 	ldw	r2,-28(fp)
 1000858:	10800317 	ldw	r2,12(r2)
 100085c:	e0bff515 	stw	r2,-44(fp)

		/* Set the bits. */
		pxEventBits->uxEventBits |= uxBitsToSet;
 1000860:	e0bff817 	ldw	r2,-32(fp)
 1000864:	10c00017 	ldw	r3,0(r2)
 1000868:	e0bfff17 	ldw	r2,-4(fp)
 100086c:	1886b03a 	or	r3,r3,r2
 1000870:	e0bff817 	ldw	r2,-32(fp)
 1000874:	10c00015 	stw	r3,0(r2)

		/* See if the new bit value should unblock any tasks. */
		while( pxListItem != pxListEnd )
 1000878:	00003306 	br	1000948 <xEventGroupSetBits+0x138>
		{
			pxNext = listGET_NEXT( pxListItem );
 100087c:	e0bff517 	ldw	r2,-44(fp)
 1000880:	10800117 	ldw	r2,4(r2)
 1000884:	e0bffb15 	stw	r2,-20(fp)
			uxBitsWaitedFor = listGET_LIST_ITEM_VALUE( pxListItem );
 1000888:	e0bff517 	ldw	r2,-44(fp)
 100088c:	10800017 	ldw	r2,0(r2)
 1000890:	e0bffc15 	stw	r2,-16(fp)
			xMatchFound = pdFALSE;
 1000894:	e03ff715 	stw	zero,-36(fp)

			/* Split the bits waited for from the control bits. */
			uxControlBits = uxBitsWaitedFor & eventEVENT_BITS_CONTROL_BYTES;
 1000898:	e0bffc17 	ldw	r2,-16(fp)
 100089c:	10bfc02c 	andhi	r2,r2,65280
 10008a0:	e0bffd15 	stw	r2,-12(fp)
			uxBitsWaitedFor &= ~eventEVENT_BITS_CONTROL_BYTES;
 10008a4:	e0fffc17 	ldw	r3,-16(fp)
 10008a8:	00804034 	movhi	r2,256
 10008ac:	10bfffc4 	addi	r2,r2,-1
 10008b0:	1884703a 	and	r2,r3,r2
 10008b4:	e0bffc15 	stw	r2,-16(fp)

			if( ( uxControlBits & eventWAIT_FOR_ALL_BITS ) == ( EventBits_t ) 0 )
 10008b8:	e0bffd17 	ldw	r2,-12(fp)
 10008bc:	1081002c 	andhi	r2,r2,1024
 10008c0:	1000081e 	bne	r2,zero,10008e4 <xEventGroupSetBits+0xd4>
			{
				/* Just looking for single bit being set. */
				if( ( uxBitsWaitedFor & pxEventBits->uxEventBits ) != ( EventBits_t ) 0 )
 10008c4:	e0bff817 	ldw	r2,-32(fp)
 10008c8:	10c00017 	ldw	r3,0(r2)
 10008cc:	e0bffc17 	ldw	r2,-16(fp)
 10008d0:	1884703a 	and	r2,r3,r2
 10008d4:	10000b26 	beq	r2,zero,1000904 <xEventGroupSetBits+0xf4>
				{
					xMatchFound = pdTRUE;
 10008d8:	00800044 	movi	r2,1
 10008dc:	e0bff715 	stw	r2,-36(fp)
 10008e0:	00000806 	br	1000904 <xEventGroupSetBits+0xf4>
				else
				{
					mtCOVERAGE_TEST_MARKER();
				}
			}
			else if( ( uxBitsWaitedFor & pxEventBits->uxEventBits ) == uxBitsWaitedFor )
 10008e4:	e0bff817 	ldw	r2,-32(fp)
 10008e8:	10c00017 	ldw	r3,0(r2)
 10008ec:	e0bffc17 	ldw	r2,-16(fp)
 10008f0:	1886703a 	and	r3,r3,r2
 10008f4:	e0bffc17 	ldw	r2,-16(fp)
 10008f8:	1880021e 	bne	r3,r2,1000904 <xEventGroupSetBits+0xf4>
			{
				/* All bits are set. */
				xMatchFound = pdTRUE;
 10008fc:	00800044 	movi	r2,1
 1000900:	e0bff715 	stw	r2,-36(fp)
			else
			{
				/* Need all bits to be set, but not all the bits were set. */
			}

			if( xMatchFound != pdFALSE )
 1000904:	e0bff717 	ldw	r2,-36(fp)
 1000908:	10000d26 	beq	r2,zero,1000940 <xEventGroupSetBits+0x130>
			{
				/* The bits match.  Should the bits be cleared on exit? */
				if( ( uxControlBits & eventCLEAR_EVENTS_ON_EXIT_BIT ) != ( EventBits_t ) 0 )
 100090c:	e0bffd17 	ldw	r2,-12(fp)
 1000910:	1080402c 	andhi	r2,r2,256
 1000914:	10000426 	beq	r2,zero,1000928 <xEventGroupSetBits+0x118>
				{
					uxBitsToClear |= uxBitsWaitedFor;
 1000918:	e0fff617 	ldw	r3,-40(fp)
 100091c:	e0bffc17 	ldw	r2,-16(fp)
 1000920:	1884b03a 	or	r2,r3,r2
 1000924:	e0bff615 	stw	r2,-40(fp)
				/* Store the actual event flag value in the task's event list
				item before removing the task from the event list.  The
				eventUNBLOCKED_DUE_TO_BIT_SET bit is set so the task knows
				that is was unblocked due to its required bits matching, rather
				than because it timed out. */
				vTaskRemoveFromUnorderedEventList( pxListItem, pxEventBits->uxEventBits | eventUNBLOCKED_DUE_TO_BIT_SET );
 1000928:	e0bff817 	ldw	r2,-32(fp)
 100092c:	10800017 	ldw	r2,0(r2)
 1000930:	10808034 	orhi	r2,r2,512
 1000934:	100b883a 	mov	r5,r2
 1000938:	e13ff517 	ldw	r4,-44(fp)
 100093c:	10049c40 	call	10049c4 <vTaskRemoveFromUnorderedEventList>
			}

			/* Move onto the next list item.  Note pxListItem->pxNext is not
			used here as the list item may have been removed from the event list
			and inserted into the ready/pending reading list. */
			pxListItem = pxNext;
 1000940:	e0bffb17 	ldw	r2,-20(fp)
 1000944:	e0bff515 	stw	r2,-44(fp)

		/* Set the bits. */
		pxEventBits->uxEventBits |= uxBitsToSet;

		/* See if the new bit value should unblock any tasks. */
		while( pxListItem != pxListEnd )
 1000948:	e0fff517 	ldw	r3,-44(fp)
 100094c:	e0bffa17 	ldw	r2,-24(fp)
 1000950:	18bfca1e 	bne	r3,r2,100087c <__alt_data_end+0xff00087c>
			pxListItem = pxNext;
		}

		/* Clear any bits that matched when the eventCLEAR_EVENTS_ON_EXIT_BIT
		bit was set in the control word. */
		pxEventBits->uxEventBits &= ~uxBitsToClear;
 1000954:	e0bff817 	ldw	r2,-32(fp)
 1000958:	10c00017 	ldw	r3,0(r2)
 100095c:	e0bff617 	ldw	r2,-40(fp)
 1000960:	0084303a 	nor	r2,zero,r2
 1000964:	1886703a 	and	r3,r3,r2
 1000968:	e0bff817 	ldw	r2,-32(fp)
 100096c:	10c00015 	stw	r3,0(r2)
	}
	( void ) xTaskResumeAll();
 1000970:	10043880 	call	1004388 <xTaskResumeAll>

	return pxEventBits->uxEventBits;
 1000974:	e0bff817 	ldw	r2,-32(fp)
 1000978:	10800017 	ldw	r2,0(r2)
}
 100097c:	e037883a 	mov	sp,fp
 1000980:	dfc00117 	ldw	ra,4(sp)
 1000984:	df000017 	ldw	fp,0(sp)
 1000988:	dec00204 	addi	sp,sp,8
 100098c:	f800283a 	ret

01000990 <vEventGroupDelete>:
/*-----------------------------------------------------------*/

void vEventGroupDelete( EventGroupHandle_t xEventGroup )
{
 1000990:	defffb04 	addi	sp,sp,-20
 1000994:	dfc00415 	stw	ra,16(sp)
 1000998:	df000315 	stw	fp,12(sp)
 100099c:	df000304 	addi	fp,sp,12
 10009a0:	e13fff15 	stw	r4,-4(fp)
EventGroup_t *pxEventBits = xEventGroup;
 10009a4:	e0bfff17 	ldw	r2,-4(fp)
 10009a8:	e0bffd15 	stw	r2,-12(fp)
const List_t *pxTasksWaitingForBits = &( pxEventBits->xTasksWaitingForBits );
 10009ac:	e0bffd17 	ldw	r2,-12(fp)
 10009b0:	10800104 	addi	r2,r2,4
 10009b4:	e0bffe15 	stw	r2,-8(fp)

	vTaskSuspendAll();
 10009b8:	100435c0 	call	100435c <vTaskSuspendAll>
	{
		traceEVENT_GROUP_DELETE( xEventGroup );

		while( listCURRENT_LIST_LENGTH( pxTasksWaitingForBits ) > ( UBaseType_t ) 0 )
 10009bc:	00000506 	br	10009d4 <vEventGroupDelete+0x44>
		{
			/* Unblock the task, returning 0 as the event list is being deleted
			and cannot therefore have any bits set. */
			configASSERT( pxTasksWaitingForBits->xListEnd.pxNext != ( const ListItem_t * ) &( pxTasksWaitingForBits->xListEnd ) );
			vTaskRemoveFromUnorderedEventList( pxTasksWaitingForBits->xListEnd.pxNext, eventUNBLOCKED_DUE_TO_BIT_SET );
 10009c0:	e0bffe17 	ldw	r2,-8(fp)
 10009c4:	10800317 	ldw	r2,12(r2)
 10009c8:	01408034 	movhi	r5,512
 10009cc:	1009883a 	mov	r4,r2
 10009d0:	10049c40 	call	10049c4 <vTaskRemoveFromUnorderedEventList>

	vTaskSuspendAll();
	{
		traceEVENT_GROUP_DELETE( xEventGroup );

		while( listCURRENT_LIST_LENGTH( pxTasksWaitingForBits ) > ( UBaseType_t ) 0 )
 10009d4:	e0bffe17 	ldw	r2,-8(fp)
 10009d8:	10800017 	ldw	r2,0(r2)
 10009dc:	103ff81e 	bne	r2,zero,10009c0 <__alt_data_end+0xff0009c0>

		#if( ( configSUPPORT_DYNAMIC_ALLOCATION == 1 ) && ( configSUPPORT_STATIC_ALLOCATION == 0 ) )
		{
			/* The event group can only have been allocated dynamically - free
			it again. */
			vPortFree( pxEventBits );
 10009e0:	e13ffd17 	ldw	r4,-12(fp)
 10009e4:	10011840 	call	1001184 <vPortFree>
				mtCOVERAGE_TEST_MARKER();
			}
		}
		#endif /* configSUPPORT_DYNAMIC_ALLOCATION */
	}
	( void ) xTaskResumeAll();
 10009e8:	10043880 	call	1004388 <xTaskResumeAll>
}
 10009ec:	0001883a 	nop
 10009f0:	e037883a 	mov	sp,fp
 10009f4:	dfc00117 	ldw	ra,4(sp)
 10009f8:	df000017 	ldw	fp,0(sp)
 10009fc:	dec00204 	addi	sp,sp,8
 1000a00:	f800283a 	ret

01000a04 <vEventGroupSetBitsCallback>:
/*-----------------------------------------------------------*/

/* For internal use only - execute a 'set bits' command that was pended from
an interrupt. */
void vEventGroupSetBitsCallback( void *pvEventGroup, const uint32_t ulBitsToSet )
{
 1000a04:	defffc04 	addi	sp,sp,-16
 1000a08:	dfc00315 	stw	ra,12(sp)
 1000a0c:	df000215 	stw	fp,8(sp)
 1000a10:	df000204 	addi	fp,sp,8
 1000a14:	e13ffe15 	stw	r4,-8(fp)
 1000a18:	e17fff15 	stw	r5,-4(fp)
	( void ) xEventGroupSetBits( pvEventGroup, ( EventBits_t ) ulBitsToSet ); /*lint !e9079 Can't avoid cast to void* as a generic timer callback prototype. Callback casts back to original type so safe. */
 1000a1c:	e17fff17 	ldw	r5,-4(fp)
 1000a20:	e13ffe17 	ldw	r4,-8(fp)
 1000a24:	10008100 	call	1000810 <xEventGroupSetBits>
}
 1000a28:	0001883a 	nop
 1000a2c:	e037883a 	mov	sp,fp
 1000a30:	dfc00117 	ldw	ra,4(sp)
 1000a34:	df000017 	ldw	fp,0(sp)
 1000a38:	dec00204 	addi	sp,sp,8
 1000a3c:	f800283a 	ret

01000a40 <vEventGroupClearBitsCallback>:
/*-----------------------------------------------------------*/

/* For internal use only - execute a 'clear bits' command that was pended from
an interrupt. */
void vEventGroupClearBitsCallback( void *pvEventGroup, const uint32_t ulBitsToClear )
{
 1000a40:	defffc04 	addi	sp,sp,-16
 1000a44:	dfc00315 	stw	ra,12(sp)
 1000a48:	df000215 	stw	fp,8(sp)
 1000a4c:	df000204 	addi	fp,sp,8
 1000a50:	e13ffe15 	stw	r4,-8(fp)
 1000a54:	e17fff15 	stw	r5,-4(fp)
	( void ) xEventGroupClearBits( pvEventGroup, ( EventBits_t ) ulBitsToClear ); /*lint !e9079 Can't avoid cast to void* as a generic timer callback prototype. Callback casts back to original type so safe. */
 1000a58:	e17fff17 	ldw	r5,-4(fp)
 1000a5c:	e13ffe17 	ldw	r4,-8(fp)
 1000a60:	100076c0 	call	100076c <xEventGroupClearBits>
}
 1000a64:	0001883a 	nop
 1000a68:	e037883a 	mov	sp,fp
 1000a6c:	dfc00117 	ldw	ra,4(sp)
 1000a70:	df000017 	ldw	fp,0(sp)
 1000a74:	dec00204 	addi	sp,sp,8
 1000a78:	f800283a 	ret

01000a7c <prvTestWaitCondition>:
/*-----------------------------------------------------------*/

static BaseType_t prvTestWaitCondition( const EventBits_t uxCurrentEventBits, const EventBits_t uxBitsToWaitFor, const BaseType_t xWaitForAllBits )
{
 1000a7c:	defffb04 	addi	sp,sp,-20
 1000a80:	df000415 	stw	fp,16(sp)
 1000a84:	df000404 	addi	fp,sp,16
 1000a88:	e13ffd15 	stw	r4,-12(fp)
 1000a8c:	e17ffe15 	stw	r5,-8(fp)
 1000a90:	e1bfff15 	stw	r6,-4(fp)
BaseType_t xWaitConditionMet = pdFALSE;
 1000a94:	e03ffc15 	stw	zero,-16(fp)

	if( xWaitForAllBits == pdFALSE )
 1000a98:	e0bfff17 	ldw	r2,-4(fp)
 1000a9c:	1000071e 	bne	r2,zero,1000abc <prvTestWaitCondition+0x40>
	{
		/* Task only has to wait for one bit within uxBitsToWaitFor to be
		set.  Is one already set? */
		if( ( uxCurrentEventBits & uxBitsToWaitFor ) != ( EventBits_t ) 0 )
 1000aa0:	e0fffd17 	ldw	r3,-12(fp)
 1000aa4:	e0bffe17 	ldw	r2,-8(fp)
 1000aa8:	1884703a 	and	r2,r3,r2
 1000aac:	10000a26 	beq	r2,zero,1000ad8 <prvTestWaitCondition+0x5c>
		{
			xWaitConditionMet = pdTRUE;
 1000ab0:	00800044 	movi	r2,1
 1000ab4:	e0bffc15 	stw	r2,-16(fp)
 1000ab8:	00000706 	br	1000ad8 <prvTestWaitCondition+0x5c>
	}
	else
	{
		/* Task has to wait for all the bits in uxBitsToWaitFor to be set.
		Are they set already? */
		if( ( uxCurrentEventBits & uxBitsToWaitFor ) == uxBitsToWaitFor )
 1000abc:	e0fffd17 	ldw	r3,-12(fp)
 1000ac0:	e0bffe17 	ldw	r2,-8(fp)
 1000ac4:	1886703a 	and	r3,r3,r2
 1000ac8:	e0bffe17 	ldw	r2,-8(fp)
 1000acc:	1880021e 	bne	r3,r2,1000ad8 <prvTestWaitCondition+0x5c>
		{
			xWaitConditionMet = pdTRUE;
 1000ad0:	00800044 	movi	r2,1
 1000ad4:	e0bffc15 	stw	r2,-16(fp)
		{
			mtCOVERAGE_TEST_MARKER();
		}
	}

	return xWaitConditionMet;
 1000ad8:	e0bffc17 	ldw	r2,-16(fp)
}
 1000adc:	e037883a 	mov	sp,fp
 1000ae0:	df000017 	ldw	fp,0(sp)
 1000ae4:	dec00104 	addi	sp,sp,4
 1000ae8:	f800283a 	ret

01000aec <vListInitialise>:
/*-----------------------------------------------------------
 * PUBLIC LIST API documented in list.h
 *----------------------------------------------------------*/

void vListInitialise( List_t * const pxList )
{
 1000aec:	defffe04 	addi	sp,sp,-8
 1000af0:	df000115 	stw	fp,4(sp)
 1000af4:	df000104 	addi	fp,sp,4
 1000af8:	e13fff15 	stw	r4,-4(fp)
	/* The list structure contains a list item which is used to mark the
	end of the list.  To initialise the list the list end is inserted
	as the only list entry. */
	pxList->pxIndex = ( ListItem_t * ) &( pxList->xListEnd );			/*lint !e826 !e740 !e9087 The mini list structure is used as the list end to save RAM.  This is checked and valid. */
 1000afc:	e0bfff17 	ldw	r2,-4(fp)
 1000b00:	10c00204 	addi	r3,r2,8
 1000b04:	e0bfff17 	ldw	r2,-4(fp)
 1000b08:	10c00115 	stw	r3,4(r2)

	/* The list end value is the highest possible value in the list to
	ensure it remains at the end of the list. */
	pxList->xListEnd.xItemValue = portMAX_DELAY;
 1000b0c:	e0bfff17 	ldw	r2,-4(fp)
 1000b10:	00ffffc4 	movi	r3,-1
 1000b14:	10c00215 	stw	r3,8(r2)

	/* The list end next and previous pointers point to itself so we know
	when the list is empty. */
	pxList->xListEnd.pxNext = ( ListItem_t * ) &( pxList->xListEnd );	/*lint !e826 !e740 !e9087 The mini list structure is used as the list end to save RAM.  This is checked and valid. */
 1000b18:	e0bfff17 	ldw	r2,-4(fp)
 1000b1c:	10c00204 	addi	r3,r2,8
 1000b20:	e0bfff17 	ldw	r2,-4(fp)
 1000b24:	10c00315 	stw	r3,12(r2)
	pxList->xListEnd.pxPrevious = ( ListItem_t * ) &( pxList->xListEnd );/*lint !e826 !e740 !e9087 The mini list structure is used as the list end to save RAM.  This is checked and valid. */
 1000b28:	e0bfff17 	ldw	r2,-4(fp)
 1000b2c:	10c00204 	addi	r3,r2,8
 1000b30:	e0bfff17 	ldw	r2,-4(fp)
 1000b34:	10c00415 	stw	r3,16(r2)

	pxList->uxNumberOfItems = ( UBaseType_t ) 0U;
 1000b38:	e0bfff17 	ldw	r2,-4(fp)
 1000b3c:	10000015 	stw	zero,0(r2)

	/* Write known values into the list if
	configUSE_LIST_DATA_INTEGRITY_CHECK_BYTES is set to 1. */
	listSET_LIST_INTEGRITY_CHECK_1_VALUE( pxList );
	listSET_LIST_INTEGRITY_CHECK_2_VALUE( pxList );
}
 1000b40:	0001883a 	nop
 1000b44:	e037883a 	mov	sp,fp
 1000b48:	df000017 	ldw	fp,0(sp)
 1000b4c:	dec00104 	addi	sp,sp,4
 1000b50:	f800283a 	ret

01000b54 <vListInitialiseItem>:
/*-----------------------------------------------------------*/

void vListInitialiseItem( ListItem_t * const pxItem )
{
 1000b54:	defffe04 	addi	sp,sp,-8
 1000b58:	df000115 	stw	fp,4(sp)
 1000b5c:	df000104 	addi	fp,sp,4
 1000b60:	e13fff15 	stw	r4,-4(fp)
	/* Make sure the list item is not recorded as being on a list. */
	pxItem->pxContainer = NULL;
 1000b64:	e0bfff17 	ldw	r2,-4(fp)
 1000b68:	10000415 	stw	zero,16(r2)

	/* Write known values into the list item if
	configUSE_LIST_DATA_INTEGRITY_CHECK_BYTES is set to 1. */
	listSET_FIRST_LIST_ITEM_INTEGRITY_CHECK_VALUE( pxItem );
	listSET_SECOND_LIST_ITEM_INTEGRITY_CHECK_VALUE( pxItem );
}
 1000b6c:	0001883a 	nop
 1000b70:	e037883a 	mov	sp,fp
 1000b74:	df000017 	ldw	fp,0(sp)
 1000b78:	dec00104 	addi	sp,sp,4
 1000b7c:	f800283a 	ret

01000b80 <vListInsertEnd>:
/*-----------------------------------------------------------*/

void vListInsertEnd( List_t * const pxList, ListItem_t * const pxNewListItem )
{
 1000b80:	defffc04 	addi	sp,sp,-16
 1000b84:	df000315 	stw	fp,12(sp)
 1000b88:	df000304 	addi	fp,sp,12
 1000b8c:	e13ffe15 	stw	r4,-8(fp)
 1000b90:	e17fff15 	stw	r5,-4(fp)
ListItem_t * const pxIndex = pxList->pxIndex;
 1000b94:	e0bffe17 	ldw	r2,-8(fp)
 1000b98:	10800117 	ldw	r2,4(r2)
 1000b9c:	e0bffd15 	stw	r2,-12(fp)
	listTEST_LIST_ITEM_INTEGRITY( pxNewListItem );

	/* Insert a new list item into pxList, but rather than sort the list,
	makes the new list item the last item to be removed by a call to
	listGET_OWNER_OF_NEXT_ENTRY(). */
	pxNewListItem->pxNext = pxIndex;
 1000ba0:	e0bfff17 	ldw	r2,-4(fp)
 1000ba4:	e0fffd17 	ldw	r3,-12(fp)
 1000ba8:	10c00115 	stw	r3,4(r2)
	pxNewListItem->pxPrevious = pxIndex->pxPrevious;
 1000bac:	e0bffd17 	ldw	r2,-12(fp)
 1000bb0:	10c00217 	ldw	r3,8(r2)
 1000bb4:	e0bfff17 	ldw	r2,-4(fp)
 1000bb8:	10c00215 	stw	r3,8(r2)

	/* Only used during decision coverage testing. */
	mtCOVERAGE_TEST_DELAY();

	pxIndex->pxPrevious->pxNext = pxNewListItem;
 1000bbc:	e0bffd17 	ldw	r2,-12(fp)
 1000bc0:	10800217 	ldw	r2,8(r2)
 1000bc4:	e0ffff17 	ldw	r3,-4(fp)
 1000bc8:	10c00115 	stw	r3,4(r2)
	pxIndex->pxPrevious = pxNewListItem;
 1000bcc:	e0bffd17 	ldw	r2,-12(fp)
 1000bd0:	e0ffff17 	ldw	r3,-4(fp)
 1000bd4:	10c00215 	stw	r3,8(r2)

	/* Remember which list the item is in. */
	pxNewListItem->pxContainer = pxList;
 1000bd8:	e0bfff17 	ldw	r2,-4(fp)
 1000bdc:	e0fffe17 	ldw	r3,-8(fp)
 1000be0:	10c00415 	stw	r3,16(r2)

	( pxList->uxNumberOfItems )++;
 1000be4:	e0bffe17 	ldw	r2,-8(fp)
 1000be8:	10800017 	ldw	r2,0(r2)
 1000bec:	10c00044 	addi	r3,r2,1
 1000bf0:	e0bffe17 	ldw	r2,-8(fp)
 1000bf4:	10c00015 	stw	r3,0(r2)
}
 1000bf8:	0001883a 	nop
 1000bfc:	e037883a 	mov	sp,fp
 1000c00:	df000017 	ldw	fp,0(sp)
 1000c04:	dec00104 	addi	sp,sp,4
 1000c08:	f800283a 	ret

01000c0c <vListInsert>:
/*-----------------------------------------------------------*/

void vListInsert( List_t * const pxList, ListItem_t * const pxNewListItem )
{
 1000c0c:	defffb04 	addi	sp,sp,-20
 1000c10:	df000415 	stw	fp,16(sp)
 1000c14:	df000404 	addi	fp,sp,16
 1000c18:	e13ffe15 	stw	r4,-8(fp)
 1000c1c:	e17fff15 	stw	r5,-4(fp)
ListItem_t *pxIterator;
const TickType_t xValueOfInsertion = pxNewListItem->xItemValue;
 1000c20:	e0bfff17 	ldw	r2,-4(fp)
 1000c24:	10800017 	ldw	r2,0(r2)
 1000c28:	e0bffd15 	stw	r2,-12(fp)
	new list item should be placed after it.  This ensures that TCBs which are
	stored in ready lists (all of which have the same xItemValue value) get a
	share of the CPU.  However, if the xItemValue is the same as the back marker
	the iteration loop below will not end.  Therefore the value is checked
	first, and the algorithm slightly modified if necessary. */
	if( xValueOfInsertion == portMAX_DELAY )
 1000c2c:	e0bffd17 	ldw	r2,-12(fp)
 1000c30:	10bfffd8 	cmpnei	r2,r2,-1
 1000c34:	1000041e 	bne	r2,zero,1000c48 <vListInsert+0x3c>
	{
		pxIterator = pxList->xListEnd.pxPrevious;
 1000c38:	e0bffe17 	ldw	r2,-8(fp)
 1000c3c:	10800417 	ldw	r2,16(r2)
 1000c40:	e0bffc15 	stw	r2,-16(fp)
 1000c44:	00000c06 	br	1000c78 <vListInsert+0x6c>
			4) Using a queue or semaphore before it has been initialised or
			   before the scheduler has been started (are interrupts firing
			   before vTaskStartScheduler() has been called?).
		**********************************************************************/

		for( pxIterator = ( ListItem_t * ) &( pxList->xListEnd ); pxIterator->pxNext->xItemValue <= xValueOfInsertion; pxIterator = pxIterator->pxNext ) /*lint !e826 !e740 !e9087 The mini list structure is used as the list end to save RAM.  This is checked and valid. *//*lint !e440 The iterator moves to a different value, not xValueOfInsertion. */
 1000c48:	e0bffe17 	ldw	r2,-8(fp)
 1000c4c:	10800204 	addi	r2,r2,8
 1000c50:	e0bffc15 	stw	r2,-16(fp)
 1000c54:	00000306 	br	1000c64 <vListInsert+0x58>
 1000c58:	e0bffc17 	ldw	r2,-16(fp)
 1000c5c:	10800117 	ldw	r2,4(r2)
 1000c60:	e0bffc15 	stw	r2,-16(fp)
 1000c64:	e0bffc17 	ldw	r2,-16(fp)
 1000c68:	10800117 	ldw	r2,4(r2)
 1000c6c:	10800017 	ldw	r2,0(r2)
 1000c70:	e0fffd17 	ldw	r3,-12(fp)
 1000c74:	18bff82e 	bgeu	r3,r2,1000c58 <__alt_data_end+0xff000c58>
			/* There is nothing to do here, just iterating to the wanted
			insertion position. */
		}
	}

	pxNewListItem->pxNext = pxIterator->pxNext;
 1000c78:	e0bffc17 	ldw	r2,-16(fp)
 1000c7c:	10c00117 	ldw	r3,4(r2)
 1000c80:	e0bfff17 	ldw	r2,-4(fp)
 1000c84:	10c00115 	stw	r3,4(r2)
	pxNewListItem->pxNext->pxPrevious = pxNewListItem;
 1000c88:	e0bfff17 	ldw	r2,-4(fp)
 1000c8c:	10800117 	ldw	r2,4(r2)
 1000c90:	e0ffff17 	ldw	r3,-4(fp)
 1000c94:	10c00215 	stw	r3,8(r2)
	pxNewListItem->pxPrevious = pxIterator;
 1000c98:	e0bfff17 	ldw	r2,-4(fp)
 1000c9c:	e0fffc17 	ldw	r3,-16(fp)
 1000ca0:	10c00215 	stw	r3,8(r2)
	pxIterator->pxNext = pxNewListItem;
 1000ca4:	e0bffc17 	ldw	r2,-16(fp)
 1000ca8:	e0ffff17 	ldw	r3,-4(fp)
 1000cac:	10c00115 	stw	r3,4(r2)

	/* Remember which list the item is in.  This allows fast removal of the
	item later. */
	pxNewListItem->pxContainer = pxList;
 1000cb0:	e0bfff17 	ldw	r2,-4(fp)
 1000cb4:	e0fffe17 	ldw	r3,-8(fp)
 1000cb8:	10c00415 	stw	r3,16(r2)

	( pxList->uxNumberOfItems )++;
 1000cbc:	e0bffe17 	ldw	r2,-8(fp)
 1000cc0:	10800017 	ldw	r2,0(r2)
 1000cc4:	10c00044 	addi	r3,r2,1
 1000cc8:	e0bffe17 	ldw	r2,-8(fp)
 1000ccc:	10c00015 	stw	r3,0(r2)
}
 1000cd0:	0001883a 	nop
 1000cd4:	e037883a 	mov	sp,fp
 1000cd8:	df000017 	ldw	fp,0(sp)
 1000cdc:	dec00104 	addi	sp,sp,4
 1000ce0:	f800283a 	ret

01000ce4 <uxListRemove>:
/*-----------------------------------------------------------*/

UBaseType_t uxListRemove( ListItem_t * const pxItemToRemove )
{
 1000ce4:	defffd04 	addi	sp,sp,-12
 1000ce8:	df000215 	stw	fp,8(sp)
 1000cec:	df000204 	addi	fp,sp,8
 1000cf0:	e13fff15 	stw	r4,-4(fp)
/* The list item knows which list it is in.  Obtain the list from the list
item. */
List_t * const pxList = pxItemToRemove->pxContainer;
 1000cf4:	e0bfff17 	ldw	r2,-4(fp)
 1000cf8:	10800417 	ldw	r2,16(r2)
 1000cfc:	e0bffe15 	stw	r2,-8(fp)

	pxItemToRemove->pxNext->pxPrevious = pxItemToRemove->pxPrevious;
 1000d00:	e0bfff17 	ldw	r2,-4(fp)
 1000d04:	10800117 	ldw	r2,4(r2)
 1000d08:	e0ffff17 	ldw	r3,-4(fp)
 1000d0c:	18c00217 	ldw	r3,8(r3)
 1000d10:	10c00215 	stw	r3,8(r2)
	pxItemToRemove->pxPrevious->pxNext = pxItemToRemove->pxNext;
 1000d14:	e0bfff17 	ldw	r2,-4(fp)
 1000d18:	10800217 	ldw	r2,8(r2)
 1000d1c:	e0ffff17 	ldw	r3,-4(fp)
 1000d20:	18c00117 	ldw	r3,4(r3)
 1000d24:	10c00115 	stw	r3,4(r2)

	/* Only used during decision coverage testing. */
	mtCOVERAGE_TEST_DELAY();

	/* Make sure the index is left pointing to a valid item. */
	if( pxList->pxIndex == pxItemToRemove )
 1000d28:	e0bffe17 	ldw	r2,-8(fp)
 1000d2c:	10c00117 	ldw	r3,4(r2)
 1000d30:	e0bfff17 	ldw	r2,-4(fp)
 1000d34:	1880041e 	bne	r3,r2,1000d48 <uxListRemove+0x64>
	{
		pxList->pxIndex = pxItemToRemove->pxPrevious;
 1000d38:	e0bfff17 	ldw	r2,-4(fp)
 1000d3c:	10c00217 	ldw	r3,8(r2)
 1000d40:	e0bffe17 	ldw	r2,-8(fp)
 1000d44:	10c00115 	stw	r3,4(r2)
	else
	{
		mtCOVERAGE_TEST_MARKER();
	}

	pxItemToRemove->pxContainer = NULL;
 1000d48:	e0bfff17 	ldw	r2,-4(fp)
 1000d4c:	10000415 	stw	zero,16(r2)
	( pxList->uxNumberOfItems )--;
 1000d50:	e0bffe17 	ldw	r2,-8(fp)
 1000d54:	10800017 	ldw	r2,0(r2)
 1000d58:	10ffffc4 	addi	r3,r2,-1
 1000d5c:	e0bffe17 	ldw	r2,-8(fp)
 1000d60:	10c00015 	stw	r3,0(r2)

	return pxList->uxNumberOfItems;
 1000d64:	e0bffe17 	ldw	r2,-8(fp)
 1000d68:	10800017 	ldw	r2,0(r2)
}
 1000d6c:	e037883a 	mov	sp,fp
 1000d70:	df000017 	ldw	fp,0(sp)
 1000d74:	dec00104 	addi	sp,sp,4
 1000d78:	f800283a 	ret

01000d7c <prvReadGp>:
void vPortSysTickHandler( void * context, alt_u32 id );

/*-----------------------------------------------------------*/

static void prvReadGp( uint32_t *ulValue )
{
 1000d7c:	defffe04 	addi	sp,sp,-8
 1000d80:	df000115 	stw	fp,4(sp)
 1000d84:	df000104 	addi	fp,sp,4
 1000d88:	e13fff15 	stw	r4,-4(fp)
	asm( "stw gp, (%0)" :: "r"(ulValue) );
 1000d8c:	e0bfff17 	ldw	r2,-4(fp)
 1000d90:	16800015 	stw	gp,0(r2)
}
 1000d94:	0001883a 	nop
 1000d98:	e037883a 	mov	sp,fp
 1000d9c:	df000017 	ldw	fp,0(sp)
 1000da0:	dec00104 	addi	sp,sp,4
 1000da4:	f800283a 	ret

01000da8 <pxPortInitialiseStack>:

/* 
 * See header file for description. 
 */
StackType_t *pxPortInitialiseStack( StackType_t *pxTopOfStack, TaskFunction_t pxCode, void *pvParameters )
{    
 1000da8:	defff904 	addi	sp,sp,-28
 1000dac:	dfc00615 	stw	ra,24(sp)
 1000db0:	df000515 	stw	fp,20(sp)
 1000db4:	df000504 	addi	fp,sp,20
 1000db8:	e13ffd15 	stw	r4,-12(fp)
 1000dbc:	e17ffe15 	stw	r5,-8(fp)
 1000dc0:	e1bfff15 	stw	r6,-4(fp)
StackType_t *pxFramePointer = pxTopOfStack - 1;
 1000dc4:	e0bffd17 	ldw	r2,-12(fp)
 1000dc8:	10bfff04 	addi	r2,r2,-4
 1000dcc:	e0bffb15 	stw	r2,-20(fp)
StackType_t xGlobalPointer;

    prvReadGp( &xGlobalPointer ); 
 1000dd0:	e0bffc04 	addi	r2,fp,-16
 1000dd4:	1009883a 	mov	r4,r2
 1000dd8:	1000d7c0 	call	1000d7c <prvReadGp>

    /* End of stack marker. */
    *pxTopOfStack = 0xdeadbeef;
 1000ddc:	e0fffd17 	ldw	r3,-12(fp)
 1000de0:	00b7abb4 	movhi	r2,57006
 1000de4:	10afbbc4 	addi	r2,r2,-16657
 1000de8:	18800015 	stw	r2,0(r3)
    pxTopOfStack--;
 1000dec:	e0bffd17 	ldw	r2,-12(fp)
 1000df0:	10bfff04 	addi	r2,r2,-4
 1000df4:	e0bffd15 	stw	r2,-12(fp)
    
    *pxTopOfStack = ( StackType_t ) pxFramePointer; 
 1000df8:	e0fffb17 	ldw	r3,-20(fp)
 1000dfc:	e0bffd17 	ldw	r2,-12(fp)
 1000e00:	10c00015 	stw	r3,0(r2)
    pxTopOfStack--;
 1000e04:	e0bffd17 	ldw	r2,-12(fp)
 1000e08:	10bfff04 	addi	r2,r2,-4
 1000e0c:	e0bffd15 	stw	r2,-12(fp)
    
    *pxTopOfStack = xGlobalPointer; 
 1000e10:	e0fffc17 	ldw	r3,-16(fp)
 1000e14:	e0bffd17 	ldw	r2,-12(fp)
 1000e18:	10c00015 	stw	r3,0(r2)
    
    /* Space for R23 to R16. */
    pxTopOfStack -= 9;
 1000e1c:	e0bffd17 	ldw	r2,-12(fp)
 1000e20:	10bff704 	addi	r2,r2,-36
 1000e24:	e0bffd15 	stw	r2,-12(fp)

    *pxTopOfStack = ( StackType_t ) pxCode; 
 1000e28:	e0fffe17 	ldw	r3,-8(fp)
 1000e2c:	e0bffd17 	ldw	r2,-12(fp)
 1000e30:	10c00015 	stw	r3,0(r2)
    pxTopOfStack--;
 1000e34:	e0bffd17 	ldw	r2,-12(fp)
 1000e38:	10bfff04 	addi	r2,r2,-4
 1000e3c:	e0bffd15 	stw	r2,-12(fp)

    *pxTopOfStack = portINITIAL_ESTATUS; 
 1000e40:	e0bffd17 	ldw	r2,-12(fp)
 1000e44:	00c00044 	movi	r3,1
 1000e48:	10c00015 	stw	r3,0(r2)

    /* Space for R15 to R5. */    
    pxTopOfStack -= 12;
 1000e4c:	e0bffd17 	ldw	r2,-12(fp)
 1000e50:	10bff404 	addi	r2,r2,-48
 1000e54:	e0bffd15 	stw	r2,-12(fp)
    
    *pxTopOfStack = ( StackType_t ) pvParameters; 
 1000e58:	e0ffff17 	ldw	r3,-4(fp)
 1000e5c:	e0bffd17 	ldw	r2,-12(fp)
 1000e60:	10c00015 	stw	r3,0(r2)

    /* Space for R3 to R1, muldiv and RA. */
    pxTopOfStack -= 5;
 1000e64:	e0bffd17 	ldw	r2,-12(fp)
 1000e68:	10bffb04 	addi	r2,r2,-20
 1000e6c:	e0bffd15 	stw	r2,-12(fp)
    
    return pxTopOfStack;
 1000e70:	e0bffd17 	ldw	r2,-12(fp)
}
 1000e74:	e037883a 	mov	sp,fp
 1000e78:	dfc00117 	ldw	ra,4(sp)
 1000e7c:	df000017 	ldw	fp,0(sp)
 1000e80:	dec00204 	addi	sp,sp,8
 1000e84:	f800283a 	ret

01000e88 <xPortStartScheduler>:

/* 
 * See header file for description. 
 */
BaseType_t xPortStartScheduler( void )
{
 1000e88:	defffe04 	addi	sp,sp,-8
 1000e8c:	dfc00115 	stw	ra,4(sp)
 1000e90:	df000015 	stw	fp,0(sp)
 1000e94:	d839883a 	mov	fp,sp
	/* Start the timer that generates the tick ISR.  Interrupts are disabled
	here already. */
	prvSetupTimerInterrupt();
 1000e98:	1000ee00 	call	1000ee0 <prvSetupTimerInterrupt>
 1000e9c:	00804034 	movhi	r2,256
	
	/* Start the first task. */
    asm volatile (  " movia r2, restore_sp_from_pxCurrentTCB        \n"
 1000ea0:	10804b04 	addi	r2,r2,300
 1000ea4:	1000683a 	jmp	r2
                    " jmp r2                                          " );

	/* Should not get here! */
	return 0;
 1000ea8:	0005883a 	mov	r2,zero
}
 1000eac:	e037883a 	mov	sp,fp
 1000eb0:	dfc00117 	ldw	ra,4(sp)
 1000eb4:	df000017 	ldw	fp,0(sp)
 1000eb8:	dec00204 	addi	sp,sp,8
 1000ebc:	f800283a 	ret

01000ec0 <vPortEndScheduler>:
/*-----------------------------------------------------------*/

void vPortEndScheduler( void )
{
 1000ec0:	deffff04 	addi	sp,sp,-4
 1000ec4:	df000015 	stw	fp,0(sp)
 1000ec8:	d839883a 	mov	fp,sp
	/* It is unlikely that the NIOS2 port will require this function as there
	is nothing to return to.  */
}
 1000ecc:	0001883a 	nop
 1000ed0:	e037883a 	mov	sp,fp
 1000ed4:	df000017 	ldw	fp,0(sp)
 1000ed8:	dec00104 	addi	sp,sp,4
 1000edc:	f800283a 	ret

01000ee0 <prvSetupTimerInterrupt>:
/*
 * Setup the systick timer to generate the tick interrupts at the required
 * frequency.
 */
void prvSetupTimerInterrupt( void )
{
 1000ee0:	defffe04 	addi	sp,sp,-8
 1000ee4:	dfc00115 	stw	ra,4(sp)
 1000ee8:	df000015 	stw	fp,0(sp)
 1000eec:	d839883a 	mov	fp,sp
	/* Try to register the interrupt handler. */
	if ( -EINVAL == alt_irq_register( TIMER_0_IRQ, 0x0, vPortSysTickHandler ) )
 1000ef0:	01804034 	movhi	r6,256
 1000ef4:	3183da04 	addi	r6,r6,3944
 1000ef8:	000b883a 	mov	r5,zero
 1000efc:	01000044 	movi	r4,1
 1000f00:	10177100 	call	1017710 <alt_irq_register>
 1000f04:	10bffa98 	cmpnei	r2,r2,-22
 1000f08:	1000021e 	bne	r2,zero,1000f14 <prvSetupTimerInterrupt+0x34>
	{ 
		/* Failed to install the Interrupt Handler. */
		asm( "break" );
 1000f0c:	003da03a 	break	0
 1000f10:	00000c06 	br	1000f44 <prvSetupTimerInterrupt+0x64>
	}
	else
	{
		/* Configure SysTick to interrupt at the requested rate. */
		IOWR_ALTERA_AVALON_TIMER_CONTROL( TIMER_0_BASE, ALTERA_AVALON_TIMER_CONTROL_STOP_MSK );
 1000f14:	00c00204 	movi	r3,8
 1000f18:	00800904 	movi	r2,36
 1000f1c:	10c00035 	stwio	r3,0(r2)
		IOWR_ALTERA_AVALON_TIMER_PERIODL( TIMER_0_BASE, ( configCPU_CLOCK_HZ / configTICK_RATE_HZ ) & 0xFFFF );
 1000f20:	00f0d414 	movui	r3,50000
 1000f24:	00800a04 	movi	r2,40
 1000f28:	10c00035 	stwio	r3,0(r2)
		IOWR_ALTERA_AVALON_TIMER_PERIODH( TIMER_0_BASE, ( configCPU_CLOCK_HZ / configTICK_RATE_HZ ) >> 16 );
 1000f2c:	0007883a 	mov	r3,zero
 1000f30:	00800b04 	movi	r2,44
 1000f34:	10c00035 	stwio	r3,0(r2)
		IOWR_ALTERA_AVALON_TIMER_CONTROL( TIMER_0_BASE, ALTERA_AVALON_TIMER_CONTROL_CONT_MSK | ALTERA_AVALON_TIMER_CONTROL_START_MSK | ALTERA_AVALON_TIMER_CONTROL_ITO_MSK );
 1000f38:	00c001c4 	movi	r3,7
 1000f3c:	00800904 	movi	r2,36
 1000f40:	10c00035 	stwio	r3,0(r2)
	}

	/* Clear any already pending interrupts generated by the Timer. */
	IOWR_ALTERA_AVALON_TIMER_STATUS( TIMER_0_BASE, ~ALTERA_AVALON_TIMER_STATUS_TO_MSK );
 1000f44:	00ffff84 	movi	r3,-2
 1000f48:	00800804 	movi	r2,32
 1000f4c:	10c00035 	stwio	r3,0(r2)
}
 1000f50:	0001883a 	nop
 1000f54:	e037883a 	mov	sp,fp
 1000f58:	dfc00117 	ldw	ra,4(sp)
 1000f5c:	df000017 	ldw	fp,0(sp)
 1000f60:	dec00204 	addi	sp,sp,8
 1000f64:	f800283a 	ret

01000f68 <vPortSysTickHandler>:
/*-----------------------------------------------------------*/

void vPortSysTickHandler( void * context, alt_u32 id )
{
 1000f68:	defffc04 	addi	sp,sp,-16
 1000f6c:	dfc00315 	stw	ra,12(sp)
 1000f70:	df000215 	stw	fp,8(sp)
 1000f74:	df000204 	addi	fp,sp,8
 1000f78:	e13ffe15 	stw	r4,-8(fp)
 1000f7c:	e17fff15 	stw	r5,-4(fp)
	/* Increment the kernel tick. */
	if( xTaskIncrementTick() != pdFALSE )
 1000f80:	10045940 	call	1004594 <xTaskIncrementTick>
 1000f84:	10000126 	beq	r2,zero,1000f8c <vPortSysTickHandler+0x24>
	{
        vTaskSwitchContext();
 1000f88:	10047440 	call	1004744 <vTaskSwitchContext>
	}
		
	/* Clear the interrupt. */
	IOWR_ALTERA_AVALON_TIMER_STATUS( TIMER_0_BASE, ~ALTERA_AVALON_TIMER_STATUS_TO_MSK );
 1000f8c:	00ffff84 	movi	r3,-2
 1000f90:	00800804 	movi	r2,32
 1000f94:	10c00035 	stwio	r3,0(r2)
}
 1000f98:	0001883a 	nop
 1000f9c:	e037883a 	mov	sp,fp
 1000fa0:	dfc00117 	ldw	ra,4(sp)
 1000fa4:	df000017 	ldw	fp,0(sp)
 1000fa8:	dec00204 	addi	sp,sp,8
 1000fac:	f800283a 	ret

01000fb0 <pvPortMalloc>:
	pxIterator->pxNextFreeBlock = pxBlockToInsert;									\
}
/*-----------------------------------------------------------*/

void *pvPortMalloc( size_t xWantedSize )
{
 1000fb0:	defff704 	addi	sp,sp,-36
 1000fb4:	dfc00815 	stw	ra,32(sp)
 1000fb8:	df000715 	stw	fp,28(sp)
 1000fbc:	df000704 	addi	fp,sp,28
 1000fc0:	e13fff15 	stw	r4,-4(fp)
BlockLink_t *pxBlock, *pxPreviousBlock, *pxNewBlockLink;
static BaseType_t xHeapHasBeenInitialised = pdFALSE;
void *pvReturn = NULL;
 1000fc4:	e03ffb15 	stw	zero,-20(fp)

	vTaskSuspendAll();
 1000fc8:	100435c0 	call	100435c <vTaskSuspendAll>
	{
		/* If this is the first call to malloc then the heap will require
		initialisation to setup the list of free blocks. */
		if( xHeapHasBeenInitialised == pdFALSE )
 1000fcc:	d0a71217 	ldw	r2,-25528(gp)
 1000fd0:	1000031e 	bne	r2,zero,1000fe0 <pvPortMalloc+0x30>
		{
			prvHeapInit();
 1000fd4:	10012900 	call	1001290 <prvHeapInit>
			xHeapHasBeenInitialised = pdTRUE;
 1000fd8:	00800044 	movi	r2,1
 1000fdc:	d0a71215 	stw	r2,-25528(gp)
		}

		/* The wanted size is increased so it can contain a BlockLink_t
		structure in addition to the requested amount of bytes. */
		if( xWantedSize > 0 )
 1000fe0:	e0bfff17 	ldw	r2,-4(fp)
 1000fe4:	10000d26 	beq	r2,zero,100101c <pvPortMalloc+0x6c>
		{
			xWantedSize += heapSTRUCT_SIZE;
 1000fe8:	00800204 	movi	r2,8
 1000fec:	10bfffcc 	andi	r2,r2,65535
 1000ff0:	e0ffff17 	ldw	r3,-4(fp)
 1000ff4:	1885883a 	add	r2,r3,r2
 1000ff8:	e0bfff15 	stw	r2,-4(fp)

			/* Ensure that blocks are always aligned to the required number of bytes. */
			if( ( xWantedSize & portBYTE_ALIGNMENT_MASK ) != 0 )
 1000ffc:	e0bfff17 	ldw	r2,-4(fp)
 1001000:	108000cc 	andi	r2,r2,3
 1001004:	10000526 	beq	r2,zero,100101c <pvPortMalloc+0x6c>
			{
				/* Byte alignment required. */
				xWantedSize += ( portBYTE_ALIGNMENT - ( xWantedSize & portBYTE_ALIGNMENT_MASK ) );
 1001008:	e0ffff17 	ldw	r3,-4(fp)
 100100c:	00bfff04 	movi	r2,-4
 1001010:	1884703a 	and	r2,r3,r2
 1001014:	10800104 	addi	r2,r2,4
 1001018:	e0bfff15 	stw	r2,-4(fp)
			}
		}

		if( ( xWantedSize > 0 ) && ( xWantedSize < configADJUSTED_HEAP_SIZE ) )
 100101c:	e0bfff17 	ldw	r2,-4(fp)
 1001020:	10005126 	beq	r2,zero,1001168 <pvPortMalloc+0x1b8>
 1001024:	e0ffff17 	ldw	r3,-4(fp)
 1001028:	00802034 	movhi	r2,128
 100102c:	10bffec4 	addi	r2,r2,-5
 1001030:	10c04d36 	bltu	r2,r3,1001168 <pvPortMalloc+0x1b8>
		{
			/* Blocks are stored in byte order - traverse the list from the start
			(smallest) block until one of adequate size is found. */
			pxPreviousBlock = &xStart;
 1001034:	d0a70e04 	addi	r2,gp,-25544
 1001038:	e0bffa15 	stw	r2,-24(fp)
			pxBlock = xStart.pxNextFreeBlock;
 100103c:	d0a70e17 	ldw	r2,-25544(gp)
 1001040:	e0bff915 	stw	r2,-28(fp)
			while( ( pxBlock->xBlockSize < xWantedSize ) && ( pxBlock->pxNextFreeBlock != NULL ) )
 1001044:	00000506 	br	100105c <pvPortMalloc+0xac>
			{
				pxPreviousBlock = pxBlock;
 1001048:	e0bff917 	ldw	r2,-28(fp)
 100104c:	e0bffa15 	stw	r2,-24(fp)
				pxBlock = pxBlock->pxNextFreeBlock;
 1001050:	e0bff917 	ldw	r2,-28(fp)
 1001054:	10800017 	ldw	r2,0(r2)
 1001058:	e0bff915 	stw	r2,-28(fp)
		{
			/* Blocks are stored in byte order - traverse the list from the start
			(smallest) block until one of adequate size is found. */
			pxPreviousBlock = &xStart;
			pxBlock = xStart.pxNextFreeBlock;
			while( ( pxBlock->xBlockSize < xWantedSize ) && ( pxBlock->pxNextFreeBlock != NULL ) )
 100105c:	e0bff917 	ldw	r2,-28(fp)
 1001060:	10c00117 	ldw	r3,4(r2)
 1001064:	e0bfff17 	ldw	r2,-4(fp)
 1001068:	1880032e 	bgeu	r3,r2,1001078 <pvPortMalloc+0xc8>
 100106c:	e0bff917 	ldw	r2,-28(fp)
 1001070:	10800017 	ldw	r2,0(r2)
 1001074:	103ff41e 	bne	r2,zero,1001048 <__alt_data_end+0xff001048>
				pxPreviousBlock = pxBlock;
				pxBlock = pxBlock->pxNextFreeBlock;
			}

			/* If we found the end marker then a block of adequate size was not found. */
			if( pxBlock != &xEnd )
 1001078:	e0fff917 	ldw	r3,-28(fp)
 100107c:	d0a71004 	addi	r2,gp,-25536
 1001080:	18803926 	beq	r3,r2,1001168 <pvPortMalloc+0x1b8>
			{
				/* Return the memory space - jumping over the BlockLink_t structure
				at its start. */
				pvReturn = ( void * ) ( ( ( uint8_t * ) pxPreviousBlock->pxNextFreeBlock ) + heapSTRUCT_SIZE );
 1001084:	e0bffa17 	ldw	r2,-24(fp)
 1001088:	10c00017 	ldw	r3,0(r2)
 100108c:	00800204 	movi	r2,8
 1001090:	10bfffcc 	andi	r2,r2,65535
 1001094:	1885883a 	add	r2,r3,r2
 1001098:	e0bffb15 	stw	r2,-20(fp)

				/* This block is being returned for use so must be taken out of the
				list of free blocks. */
				pxPreviousBlock->pxNextFreeBlock = pxBlock->pxNextFreeBlock;
 100109c:	e0bff917 	ldw	r2,-28(fp)
 10010a0:	10c00017 	ldw	r3,0(r2)
 10010a4:	e0bffa17 	ldw	r2,-24(fp)
 10010a8:	10c00015 	stw	r3,0(r2)

				/* If the block is larger than required it can be split into two. */
				if( ( pxBlock->xBlockSize - xWantedSize ) > heapMINIMUM_BLOCK_SIZE )
 10010ac:	e0bff917 	ldw	r2,-28(fp)
 10010b0:	10c00117 	ldw	r3,4(r2)
 10010b4:	e0bfff17 	ldw	r2,-4(fp)
 10010b8:	1887c83a 	sub	r3,r3,r2
 10010bc:	00800204 	movi	r2,8
 10010c0:	10bfffcc 	andi	r2,r2,65535
 10010c4:	1085883a 	add	r2,r2,r2
 10010c8:	10c0222e 	bgeu	r2,r3,1001154 <pvPortMalloc+0x1a4>
				{
					/* This block is to be split into two.  Create a new block
					following the number of bytes requested. The void cast is
					used to prevent byte alignment warnings from the compiler. */
					pxNewBlockLink = ( void * ) ( ( ( uint8_t * ) pxBlock ) + xWantedSize );
 10010cc:	e0fff917 	ldw	r3,-28(fp)
 10010d0:	e0bfff17 	ldw	r2,-4(fp)
 10010d4:	1885883a 	add	r2,r3,r2
 10010d8:	e0bffd15 	stw	r2,-12(fp)

					/* Calculate the sizes of two blocks split from the single
					block. */
					pxNewBlockLink->xBlockSize = pxBlock->xBlockSize - xWantedSize;
 10010dc:	e0bff917 	ldw	r2,-28(fp)
 10010e0:	10c00117 	ldw	r3,4(r2)
 10010e4:	e0bfff17 	ldw	r2,-4(fp)
 10010e8:	1887c83a 	sub	r3,r3,r2
 10010ec:	e0bffd17 	ldw	r2,-12(fp)
 10010f0:	10c00115 	stw	r3,4(r2)
					pxBlock->xBlockSize = xWantedSize;
 10010f4:	e0bff917 	ldw	r2,-28(fp)
 10010f8:	e0ffff17 	ldw	r3,-4(fp)
 10010fc:	10c00115 	stw	r3,4(r2)

					/* Insert the new block into the list of free blocks. */
					prvInsertBlockIntoFreeList( ( pxNewBlockLink ) );
 1001100:	e0bffd17 	ldw	r2,-12(fp)
 1001104:	10800117 	ldw	r2,4(r2)
 1001108:	e0bffe15 	stw	r2,-8(fp)
 100110c:	d0a70e04 	addi	r2,gp,-25544
 1001110:	e0bffc15 	stw	r2,-16(fp)
 1001114:	00000306 	br	1001124 <pvPortMalloc+0x174>
 1001118:	e0bffc17 	ldw	r2,-16(fp)
 100111c:	10800017 	ldw	r2,0(r2)
 1001120:	e0bffc15 	stw	r2,-16(fp)
 1001124:	e0bffc17 	ldw	r2,-16(fp)
 1001128:	10800017 	ldw	r2,0(r2)
 100112c:	10c00117 	ldw	r3,4(r2)
 1001130:	e0bffe17 	ldw	r2,-8(fp)
 1001134:	18bff836 	bltu	r3,r2,1001118 <__alt_data_end+0xff001118>
 1001138:	e0bffc17 	ldw	r2,-16(fp)
 100113c:	10c00017 	ldw	r3,0(r2)
 1001140:	e0bffd17 	ldw	r2,-12(fp)
 1001144:	10c00015 	stw	r3,0(r2)
 1001148:	e0bffc17 	ldw	r2,-16(fp)
 100114c:	e0fffd17 	ldw	r3,-12(fp)
 1001150:	10c00015 	stw	r3,0(r2)
				}

				xFreeBytesRemaining -= pxBlock->xBlockSize;
 1001154:	d0e00117 	ldw	r3,-32764(gp)
 1001158:	e0bff917 	ldw	r2,-28(fp)
 100115c:	10800117 	ldw	r2,4(r2)
 1001160:	1885c83a 	sub	r2,r3,r2
 1001164:	d0a00115 	stw	r2,-32764(gp)
			}
		}

		traceMALLOC( pvReturn, xWantedSize );
	}
	( void ) xTaskResumeAll();
 1001168:	10043880 	call	1004388 <xTaskResumeAll>
			vApplicationMallocFailedHook();
		}
	}
	#endif

	return pvReturn;
 100116c:	e0bffb17 	ldw	r2,-20(fp)
}
 1001170:	e037883a 	mov	sp,fp
 1001174:	dfc00117 	ldw	ra,4(sp)
 1001178:	df000017 	ldw	fp,0(sp)
 100117c:	dec00204 	addi	sp,sp,8
 1001180:	f800283a 	ret

01001184 <vPortFree>:
/*-----------------------------------------------------------*/

void vPortFree( void *pv )
{
 1001184:	defff904 	addi	sp,sp,-28
 1001188:	dfc00615 	stw	ra,24(sp)
 100118c:	df000515 	stw	fp,20(sp)
 1001190:	df000504 	addi	fp,sp,20
 1001194:	e13fff15 	stw	r4,-4(fp)
uint8_t *puc = ( uint8_t * ) pv;
 1001198:	e0bfff17 	ldw	r2,-4(fp)
 100119c:	e0bffc15 	stw	r2,-16(fp)
BlockLink_t *pxLink;

	if( pv != NULL )
 10011a0:	e0bfff17 	ldw	r2,-4(fp)
 10011a4:	10002426 	beq	r2,zero,1001238 <vPortFree+0xb4>
	{
		/* The memory being freed will have an BlockLink_t structure immediately
		before it. */
		puc -= heapSTRUCT_SIZE;
 10011a8:	00800204 	movi	r2,8
 10011ac:	10bfffcc 	andi	r2,r2,65535
 10011b0:	0085c83a 	sub	r2,zero,r2
 10011b4:	e0fffc17 	ldw	r3,-16(fp)
 10011b8:	1885883a 	add	r2,r3,r2
 10011bc:	e0bffc15 	stw	r2,-16(fp)

		/* This unexpected casting is to keep some compilers from issuing
		byte alignment warnings. */
		pxLink = ( void * ) puc;
 10011c0:	e0bffc17 	ldw	r2,-16(fp)
 10011c4:	e0bffd15 	stw	r2,-12(fp)

		vTaskSuspendAll();
 10011c8:	100435c0 	call	100435c <vTaskSuspendAll>
		{
			/* Add this block to the list of free blocks. */
			prvInsertBlockIntoFreeList( ( ( BlockLink_t * ) pxLink ) );
 10011cc:	e0bffd17 	ldw	r2,-12(fp)
 10011d0:	10800117 	ldw	r2,4(r2)
 10011d4:	e0bffe15 	stw	r2,-8(fp)
 10011d8:	d0a70e04 	addi	r2,gp,-25544
 10011dc:	e0bffb15 	stw	r2,-20(fp)
 10011e0:	00000306 	br	10011f0 <vPortFree+0x6c>
 10011e4:	e0bffb17 	ldw	r2,-20(fp)
 10011e8:	10800017 	ldw	r2,0(r2)
 10011ec:	e0bffb15 	stw	r2,-20(fp)
 10011f0:	e0bffb17 	ldw	r2,-20(fp)
 10011f4:	10800017 	ldw	r2,0(r2)
 10011f8:	10c00117 	ldw	r3,4(r2)
 10011fc:	e0bffe17 	ldw	r2,-8(fp)
 1001200:	18bff836 	bltu	r3,r2,10011e4 <__alt_data_end+0xff0011e4>
 1001204:	e0bffb17 	ldw	r2,-20(fp)
 1001208:	10c00017 	ldw	r3,0(r2)
 100120c:	e0bffd17 	ldw	r2,-12(fp)
 1001210:	10c00015 	stw	r3,0(r2)
 1001214:	e0bffb17 	ldw	r2,-20(fp)
 1001218:	e0fffd17 	ldw	r3,-12(fp)
 100121c:	10c00015 	stw	r3,0(r2)
			xFreeBytesRemaining += pxLink->xBlockSize;
 1001220:	e0bffd17 	ldw	r2,-12(fp)
 1001224:	10c00117 	ldw	r3,4(r2)
 1001228:	d0a00117 	ldw	r2,-32764(gp)
 100122c:	1885883a 	add	r2,r3,r2
 1001230:	d0a00115 	stw	r2,-32764(gp)
			traceFREE( pv, pxLink->xBlockSize );
		}
		( void ) xTaskResumeAll();
 1001234:	10043880 	call	1004388 <xTaskResumeAll>
	}
}
 1001238:	0001883a 	nop
 100123c:	e037883a 	mov	sp,fp
 1001240:	dfc00117 	ldw	ra,4(sp)
 1001244:	df000017 	ldw	fp,0(sp)
 1001248:	dec00204 	addi	sp,sp,8
 100124c:	f800283a 	ret

01001250 <xPortGetFreeHeapSize>:
/*-----------------------------------------------------------*/

size_t xPortGetFreeHeapSize( void )
{
 1001250:	deffff04 	addi	sp,sp,-4
 1001254:	df000015 	stw	fp,0(sp)
 1001258:	d839883a 	mov	fp,sp
	return xFreeBytesRemaining;
 100125c:	d0a00117 	ldw	r2,-32764(gp)
}
 1001260:	e037883a 	mov	sp,fp
 1001264:	df000017 	ldw	fp,0(sp)
 1001268:	dec00104 	addi	sp,sp,4
 100126c:	f800283a 	ret

01001270 <vPortInitialiseBlocks>:
/*-----------------------------------------------------------*/

void vPortInitialiseBlocks( void )
{
 1001270:	deffff04 	addi	sp,sp,-4
 1001274:	df000015 	stw	fp,0(sp)
 1001278:	d839883a 	mov	fp,sp
	/* This just exists to keep the linker quiet. */
}
 100127c:	0001883a 	nop
 1001280:	e037883a 	mov	sp,fp
 1001284:	df000017 	ldw	fp,0(sp)
 1001288:	dec00104 	addi	sp,sp,4
 100128c:	f800283a 	ret

01001290 <prvHeapInit>:
/*-----------------------------------------------------------*/

static void prvHeapInit( void )
{
 1001290:	defffd04 	addi	sp,sp,-12
 1001294:	df000215 	stw	fp,8(sp)
 1001298:	df000204 	addi	fp,sp,8
BlockLink_t *pxFirstFreeBlock;
uint8_t *pucAlignedHeap;

	/* Ensure the heap starts on a correctly aligned boundary. */
	pucAlignedHeap = ( uint8_t * ) ( ( ( portPOINTER_SIZE_TYPE ) &ucHeap[ portBYTE_ALIGNMENT ] ) & ( ~( ( portPOINTER_SIZE_TYPE ) portBYTE_ALIGNMENT_MASK ) ) );
 100129c:	008040b4 	movhi	r2,258
 10012a0:	10ba6904 	addi	r2,r2,-5724
 10012a4:	00ffff04 	movi	r3,-4
 10012a8:	10c4703a 	and	r2,r2,r3
 10012ac:	e0bffe15 	stw	r2,-8(fp)

	/* xStart is used to hold a pointer to the first item in the list of free
	blocks.  The void cast is used to prevent compiler warnings. */
	xStart.pxNextFreeBlock = ( void * ) pucAlignedHeap;
 10012b0:	e0bffe17 	ldw	r2,-8(fp)
 10012b4:	d0a70e15 	stw	r2,-25544(gp)
	xStart.xBlockSize = ( size_t ) 0;
 10012b8:	d0270f15 	stw	zero,-25540(gp)

	/* xEnd is used to mark the end of the list of free blocks. */
	xEnd.xBlockSize = configADJUSTED_HEAP_SIZE;
 10012bc:	00802034 	movhi	r2,128
 10012c0:	10bfff04 	addi	r2,r2,-4
 10012c4:	d0a71115 	stw	r2,-25532(gp)
	xEnd.pxNextFreeBlock = NULL;
 10012c8:	d0271015 	stw	zero,-25536(gp)

	/* To start with there is a single free block that is sized to take up the
	entire heap space. */
	pxFirstFreeBlock = ( void * ) pucAlignedHeap;
 10012cc:	e0bffe17 	ldw	r2,-8(fp)
 10012d0:	e0bfff15 	stw	r2,-4(fp)
	pxFirstFreeBlock->xBlockSize = configADJUSTED_HEAP_SIZE;
 10012d4:	e0ffff17 	ldw	r3,-4(fp)
 10012d8:	00802034 	movhi	r2,128
 10012dc:	10bfff04 	addi	r2,r2,-4
 10012e0:	18800115 	stw	r2,4(r3)
	pxFirstFreeBlock->pxNextFreeBlock = &xEnd;
 10012e4:	e0bfff17 	ldw	r2,-4(fp)
 10012e8:	d0e71004 	addi	r3,gp,-25536
 10012ec:	10c00015 	stw	r3,0(r2)
}
 10012f0:	0001883a 	nop
 10012f4:	e037883a 	mov	sp,fp
 10012f8:	df000017 	ldw	fp,0(sp)
 10012fc:	dec00104 	addi	sp,sp,4
 1001300:	f800283a 	ret

01001304 <xQueueGenericReset>:
	}														\
	taskEXIT_CRITICAL()
/*-----------------------------------------------------------*/

BaseType_t xQueueGenericReset( QueueHandle_t xQueue, BaseType_t xNewQueue )
{
 1001304:	defffb04 	addi	sp,sp,-20
 1001308:	dfc00415 	stw	ra,16(sp)
 100130c:	df000315 	stw	fp,12(sp)
 1001310:	df000304 	addi	fp,sp,12
 1001314:	e13ffe15 	stw	r4,-8(fp)
 1001318:	e17fff15 	stw	r5,-4(fp)
Queue_t * const pxQueue = xQueue;
 100131c:	e0bffe17 	ldw	r2,-8(fp)
 1001320:	e0bffd15 	stw	r2,-12(fp)

	configASSERT( pxQueue );

	taskENTER_CRITICAL();
 1001324:	10052700 	call	1005270 <vTaskEnterCritical>
	{
		pxQueue->u.xQueue.pcTail = pxQueue->pcHead + ( pxQueue->uxLength * pxQueue->uxItemSize ); /*lint !e9016 Pointer arithmetic allowed on char types, especially when it assists conveying intent. */
 1001328:	e0bffd17 	ldw	r2,-12(fp)
 100132c:	10c00017 	ldw	r3,0(r2)
 1001330:	e0bffd17 	ldw	r2,-12(fp)
 1001334:	11000f17 	ldw	r4,60(r2)
 1001338:	e0bffd17 	ldw	r2,-12(fp)
 100133c:	10801017 	ldw	r2,64(r2)
 1001340:	2085383a 	mul	r2,r4,r2
 1001344:	1887883a 	add	r3,r3,r2
 1001348:	e0bffd17 	ldw	r2,-12(fp)
 100134c:	10c00215 	stw	r3,8(r2)
		pxQueue->uxMessagesWaiting = ( UBaseType_t ) 0U;
 1001350:	e0bffd17 	ldw	r2,-12(fp)
 1001354:	10000e15 	stw	zero,56(r2)
		pxQueue->pcWriteTo = pxQueue->pcHead;
 1001358:	e0bffd17 	ldw	r2,-12(fp)
 100135c:	10c00017 	ldw	r3,0(r2)
 1001360:	e0bffd17 	ldw	r2,-12(fp)
 1001364:	10c00115 	stw	r3,4(r2)
		pxQueue->u.xQueue.pcReadFrom = pxQueue->pcHead + ( ( pxQueue->uxLength - 1U ) * pxQueue->uxItemSize ); /*lint !e9016 Pointer arithmetic allowed on char types, especially when it assists conveying intent. */
 1001368:	e0bffd17 	ldw	r2,-12(fp)
 100136c:	10c00017 	ldw	r3,0(r2)
 1001370:	e0bffd17 	ldw	r2,-12(fp)
 1001374:	10800f17 	ldw	r2,60(r2)
 1001378:	113fffc4 	addi	r4,r2,-1
 100137c:	e0bffd17 	ldw	r2,-12(fp)
 1001380:	10801017 	ldw	r2,64(r2)
 1001384:	2085383a 	mul	r2,r4,r2
 1001388:	1887883a 	add	r3,r3,r2
 100138c:	e0bffd17 	ldw	r2,-12(fp)
 1001390:	10c00315 	stw	r3,12(r2)
		pxQueue->cRxLock = queueUNLOCKED;
 1001394:	e0bffd17 	ldw	r2,-12(fp)
 1001398:	00ffffc4 	movi	r3,-1
 100139c:	10c01105 	stb	r3,68(r2)
		pxQueue->cTxLock = queueUNLOCKED;
 10013a0:	e0bffd17 	ldw	r2,-12(fp)
 10013a4:	00ffffc4 	movi	r3,-1
 10013a8:	10c01145 	stb	r3,69(r2)

		if( xNewQueue == pdFALSE )
 10013ac:	e0bfff17 	ldw	r2,-4(fp)
 10013b0:	10000a1e 	bne	r2,zero,10013dc <xQueueGenericReset+0xd8>
			/* If there are tasks blocked waiting to read from the queue, then
			the tasks will remain blocked as after this function exits the queue
			will still be empty.  If there are tasks blocked waiting to write to
			the queue, then one should be unblocked as after this function exits
			it will be possible to write to it. */
			if( listLIST_IS_EMPTY( &( pxQueue->xTasksWaitingToSend ) ) == pdFALSE )
 10013b4:	e0bffd17 	ldw	r2,-12(fp)
 10013b8:	10800417 	ldw	r2,16(r2)
 10013bc:	10000f26 	beq	r2,zero,10013fc <xQueueGenericReset+0xf8>
			{
				if( xTaskRemoveFromEventList( &( pxQueue->xTasksWaitingToSend ) ) != pdFALSE )
 10013c0:	e0bffd17 	ldw	r2,-12(fp)
 10013c4:	10800404 	addi	r2,r2,16
 10013c8:	1009883a 	mov	r4,r2
 10013cc:	10048d00 	call	10048d0 <xTaskRemoveFromEventList>
 10013d0:	10000a26 	beq	r2,zero,10013fc <xQueueGenericReset+0xf8>
				{
					queueYIELD_IF_USING_PREEMPTION();
 10013d4:	003b683a 	trap	0
 10013d8:	00000806 	br	10013fc <xQueueGenericReset+0xf8>
			}
		}
		else
		{
			/* Ensure the event queues start in the correct state. */
			vListInitialise( &( pxQueue->xTasksWaitingToSend ) );
 10013dc:	e0bffd17 	ldw	r2,-12(fp)
 10013e0:	10800404 	addi	r2,r2,16
 10013e4:	1009883a 	mov	r4,r2
 10013e8:	1000aec0 	call	1000aec <vListInitialise>
			vListInitialise( &( pxQueue->xTasksWaitingToReceive ) );
 10013ec:	e0bffd17 	ldw	r2,-12(fp)
 10013f0:	10800904 	addi	r2,r2,36
 10013f4:	1009883a 	mov	r4,r2
 10013f8:	1000aec0 	call	1000aec <vListInitialise>
		}
	}
	taskEXIT_CRITICAL();
 10013fc:	10052c40 	call	10052c4 <vTaskExitCritical>

	/* A value is returned for calling semantic consistency with previous
	versions. */
	return pdPASS;
 1001400:	00800044 	movi	r2,1
}
 1001404:	e037883a 	mov	sp,fp
 1001408:	dfc00117 	ldw	ra,4(sp)
 100140c:	df000017 	ldw	fp,0(sp)
 1001410:	dec00204 	addi	sp,sp,8
 1001414:	f800283a 	ret

01001418 <xQueueGenericCreate>:
/*-----------------------------------------------------------*/

#if( configSUPPORT_DYNAMIC_ALLOCATION == 1 )

	QueueHandle_t xQueueGenericCreate( const UBaseType_t uxQueueLength, const UBaseType_t uxItemSize, const uint8_t ucQueueType )
	{
 1001418:	defff704 	addi	sp,sp,-36
 100141c:	dfc00815 	stw	ra,32(sp)
 1001420:	df000715 	stw	fp,28(sp)
 1001424:	df000704 	addi	fp,sp,28
 1001428:	e13ffd15 	stw	r4,-12(fp)
 100142c:	e17ffe15 	stw	r5,-8(fp)
 1001430:	3005883a 	mov	r2,r6
 1001434:	e0bfff05 	stb	r2,-4(fp)
	size_t xQueueSizeInBytes;
	uint8_t *pucQueueStorage;

		configASSERT( uxQueueLength > ( UBaseType_t ) 0 );

		if( uxItemSize == ( UBaseType_t ) 0 )
 1001438:	e0bffe17 	ldw	r2,-8(fp)
 100143c:	1000021e 	bne	r2,zero,1001448 <xQueueGenericCreate+0x30>
		{
			/* There is not going to be a queue storage area. */
			xQueueSizeInBytes = ( size_t ) 0;
 1001440:	e03ffa15 	stw	zero,-24(fp)
 1001444:	00000406 	br	1001458 <xQueueGenericCreate+0x40>
		}
		else
		{
			/* Allocate enough space to hold the maximum number of items that
			can be in the queue at any time. */
			xQueueSizeInBytes = ( size_t ) ( uxQueueLength * uxItemSize ); /*lint !e961 MISRA exception as the casts are only redundant for some ports. */
 1001448:	e0fffd17 	ldw	r3,-12(fp)
 100144c:	e0bffe17 	ldw	r2,-8(fp)
 1001450:	1885383a 	mul	r2,r3,r2
 1001454:	e0bffa15 	stw	r2,-24(fp)
		alignment requirements of the Queue_t structure - which in this case
		is an int8_t *.  Therefore, whenever the stack alignment requirements
		are greater than or equal to the pointer to char requirements the cast
		is safe.  In other cases alignment requirements are not strict (one or
		two bytes). */
		pxNewQueue = ( Queue_t * ) pvPortMalloc( sizeof( Queue_t ) + xQueueSizeInBytes ); /*lint !e9087 !e9079 see comment above. */
 1001458:	e0bffa17 	ldw	r2,-24(fp)
 100145c:	10801204 	addi	r2,r2,72
 1001460:	1009883a 	mov	r4,r2
 1001464:	1000fb00 	call	1000fb0 <pvPortMalloc>
 1001468:	e0bffb15 	stw	r2,-20(fp)

		if( pxNewQueue != NULL )
 100146c:	e0bffb17 	ldw	r2,-20(fp)
 1001470:	10000d26 	beq	r2,zero,10014a8 <xQueueGenericCreate+0x90>
		{
			/* Jump past the queue structure to find the location of the queue
			storage area. */
			pucQueueStorage = ( uint8_t * ) pxNewQueue;
 1001474:	e0bffb17 	ldw	r2,-20(fp)
 1001478:	e0bffc15 	stw	r2,-16(fp)
			pucQueueStorage += sizeof( Queue_t ); /*lint !e9016 Pointer arithmetic allowed on char types, especially when it assists conveying intent. */
 100147c:	e0bffc17 	ldw	r2,-16(fp)
 1001480:	10801204 	addi	r2,r2,72
 1001484:	e0bffc15 	stw	r2,-16(fp)
				deleted. */
				pxNewQueue->ucStaticallyAllocated = pdFALSE;
			}
			#endif /* configSUPPORT_STATIC_ALLOCATION */

			prvInitialiseNewQueue( uxQueueLength, uxItemSize, pucQueueStorage, ucQueueType, pxNewQueue );
 1001488:	e0ffff03 	ldbu	r3,-4(fp)
 100148c:	e0bffb17 	ldw	r2,-20(fp)
 1001490:	d8800015 	stw	r2,0(sp)
 1001494:	180f883a 	mov	r7,r3
 1001498:	e1bffc17 	ldw	r6,-16(fp)
 100149c:	e17ffe17 	ldw	r5,-8(fp)
 10014a0:	e13ffd17 	ldw	r4,-12(fp)
 10014a4:	10014c00 	call	10014c0 <prvInitialiseNewQueue>
		{
			traceQUEUE_CREATE_FAILED( ucQueueType );
			mtCOVERAGE_TEST_MARKER();
		}

		return pxNewQueue;
 10014a8:	e0bffb17 	ldw	r2,-20(fp)
	}
 10014ac:	e037883a 	mov	sp,fp
 10014b0:	dfc00117 	ldw	ra,4(sp)
 10014b4:	df000017 	ldw	fp,0(sp)
 10014b8:	dec00204 	addi	sp,sp,8
 10014bc:	f800283a 	ret

010014c0 <prvInitialiseNewQueue>:

#endif /* configSUPPORT_STATIC_ALLOCATION */
/*-----------------------------------------------------------*/

static void prvInitialiseNewQueue( const UBaseType_t uxQueueLength, const UBaseType_t uxItemSize, uint8_t *pucQueueStorage, const uint8_t ucQueueType, Queue_t *pxNewQueue )
{
 10014c0:	defffa04 	addi	sp,sp,-24
 10014c4:	dfc00515 	stw	ra,20(sp)
 10014c8:	df000415 	stw	fp,16(sp)
 10014cc:	df000404 	addi	fp,sp,16
 10014d0:	e13ffc15 	stw	r4,-16(fp)
 10014d4:	e17ffd15 	stw	r5,-12(fp)
 10014d8:	e1bffe15 	stw	r6,-8(fp)
 10014dc:	3805883a 	mov	r2,r7
 10014e0:	e0bfff05 	stb	r2,-4(fp)
	/* Remove compiler warnings about unused parameters should
	configUSE_TRACE_FACILITY not be set to 1. */
	( void ) ucQueueType;

	if( uxItemSize == ( UBaseType_t ) 0 )
 10014e4:	e0bffd17 	ldw	r2,-12(fp)
 10014e8:	1000041e 	bne	r2,zero,10014fc <prvInitialiseNewQueue+0x3c>
	{
		/* No RAM was allocated for the queue storage area, but PC head cannot
		be set to NULL because NULL is used as a key to say the queue is used as
		a mutex.  Therefore just set pcHead to point to the queue as a benign
		value that is known to be within the memory map. */
		pxNewQueue->pcHead = ( int8_t * ) pxNewQueue;
 10014ec:	e0800217 	ldw	r2,8(fp)
 10014f0:	e0c00217 	ldw	r3,8(fp)
 10014f4:	10c00015 	stw	r3,0(r2)
 10014f8:	00000306 	br	1001508 <prvInitialiseNewQueue+0x48>
	}
	else
	{
		/* Set the head to the start of the queue storage area. */
		pxNewQueue->pcHead = ( int8_t * ) pucQueueStorage;
 10014fc:	e0800217 	ldw	r2,8(fp)
 1001500:	e0fffe17 	ldw	r3,-8(fp)
 1001504:	10c00015 	stw	r3,0(r2)
	}

	/* Initialise the queue members as described where the queue type is
	defined. */
	pxNewQueue->uxLength = uxQueueLength;
 1001508:	e0800217 	ldw	r2,8(fp)
 100150c:	e0fffc17 	ldw	r3,-16(fp)
 1001510:	10c00f15 	stw	r3,60(r2)
	pxNewQueue->uxItemSize = uxItemSize;
 1001514:	e0800217 	ldw	r2,8(fp)
 1001518:	e0fffd17 	ldw	r3,-12(fp)
 100151c:	10c01015 	stw	r3,64(r2)
	( void ) xQueueGenericReset( pxNewQueue, pdTRUE );
 1001520:	01400044 	movi	r5,1
 1001524:	e1000217 	ldw	r4,8(fp)
 1001528:	10013040 	call	1001304 <xQueueGenericReset>
		pxNewQueue->pxQueueSetContainer = NULL;
	}
	#endif /* configUSE_QUEUE_SETS */

	traceQUEUE_CREATE( pxNewQueue );
}
 100152c:	0001883a 	nop
 1001530:	e037883a 	mov	sp,fp
 1001534:	dfc00117 	ldw	ra,4(sp)
 1001538:	df000017 	ldw	fp,0(sp)
 100153c:	dec00204 	addi	sp,sp,8
 1001540:	f800283a 	ret

01001544 <prvInitialiseMutex>:
/*-----------------------------------------------------------*/

#if( configUSE_MUTEXES == 1 )

	static void prvInitialiseMutex( Queue_t *pxNewQueue )
	{
 1001544:	defffd04 	addi	sp,sp,-12
 1001548:	dfc00215 	stw	ra,8(sp)
 100154c:	df000115 	stw	fp,4(sp)
 1001550:	df000104 	addi	fp,sp,4
 1001554:	e13fff15 	stw	r4,-4(fp)
		if( pxNewQueue != NULL )
 1001558:	e0bfff17 	ldw	r2,-4(fp)
 100155c:	10000b26 	beq	r2,zero,100158c <prvInitialiseMutex+0x48>
		{
			/* The queue create function will set all the queue structure members
			correctly for a generic queue, but this function is creating a
			mutex.  Overwrite those members that need to be set differently -
			in particular the information required for priority inheritance. */
			pxNewQueue->u.xSemaphore.xMutexHolder = NULL;
 1001560:	e0bfff17 	ldw	r2,-4(fp)
 1001564:	10000215 	stw	zero,8(r2)
			pxNewQueue->uxQueueType = queueQUEUE_IS_MUTEX;
 1001568:	e0bfff17 	ldw	r2,-4(fp)
 100156c:	10000015 	stw	zero,0(r2)

			/* In case this is a recursive mutex. */
			pxNewQueue->u.xSemaphore.uxRecursiveCallCount = 0;
 1001570:	e0bfff17 	ldw	r2,-4(fp)
 1001574:	10000315 	stw	zero,12(r2)

			traceCREATE_MUTEX( pxNewQueue );

			/* Start with the semaphore in the expected state. */
			( void ) xQueueGenericSend( pxNewQueue, NULL, ( TickType_t ) 0U, queueSEND_TO_BACK );
 1001578:	000f883a 	mov	r7,zero
 100157c:	000d883a 	mov	r6,zero
 1001580:	000b883a 	mov	r5,zero
 1001584:	e13fff17 	ldw	r4,-4(fp)
 1001588:	10017840 	call	1001784 <xQueueGenericSend>
		}
		else
		{
			traceCREATE_MUTEX_FAILED();
		}
	}
 100158c:	0001883a 	nop
 1001590:	e037883a 	mov	sp,fp
 1001594:	dfc00117 	ldw	ra,4(sp)
 1001598:	df000017 	ldw	fp,0(sp)
 100159c:	dec00204 	addi	sp,sp,8
 10015a0:	f800283a 	ret

010015a4 <xQueueCreateMutex>:
/*-----------------------------------------------------------*/

#if( ( configUSE_MUTEXES == 1 ) && ( configSUPPORT_DYNAMIC_ALLOCATION == 1 ) )

	QueueHandle_t xQueueCreateMutex( const uint8_t ucQueueType )
	{
 10015a4:	defffa04 	addi	sp,sp,-24
 10015a8:	dfc00515 	stw	ra,20(sp)
 10015ac:	df000415 	stw	fp,16(sp)
 10015b0:	df000404 	addi	fp,sp,16
 10015b4:	2005883a 	mov	r2,r4
 10015b8:	e0bfff05 	stb	r2,-4(fp)
	QueueHandle_t xNewQueue;
	const UBaseType_t uxMutexLength = ( UBaseType_t ) 1, uxMutexSize = ( UBaseType_t ) 0;
 10015bc:	00800044 	movi	r2,1
 10015c0:	e0bffc15 	stw	r2,-16(fp)
 10015c4:	e03ffd15 	stw	zero,-12(fp)

		xNewQueue = xQueueGenericCreate( uxMutexLength, uxMutexSize, ucQueueType );
 10015c8:	e0bfff03 	ldbu	r2,-4(fp)
 10015cc:	100d883a 	mov	r6,r2
 10015d0:	e17ffd17 	ldw	r5,-12(fp)
 10015d4:	e13ffc17 	ldw	r4,-16(fp)
 10015d8:	10014180 	call	1001418 <xQueueGenericCreate>
 10015dc:	e0bffe15 	stw	r2,-8(fp)
		prvInitialiseMutex( ( Queue_t * ) xNewQueue );
 10015e0:	e13ffe17 	ldw	r4,-8(fp)
 10015e4:	10015440 	call	1001544 <prvInitialiseMutex>

		return xNewQueue;
 10015e8:	e0bffe17 	ldw	r2,-8(fp)
	}
 10015ec:	e037883a 	mov	sp,fp
 10015f0:	dfc00117 	ldw	ra,4(sp)
 10015f4:	df000017 	ldw	fp,0(sp)
 10015f8:	dec00204 	addi	sp,sp,8
 10015fc:	f800283a 	ret

01001600 <xQueueGiveMutexRecursive>:
/*-----------------------------------------------------------*/

#if ( configUSE_RECURSIVE_MUTEXES == 1 )

	BaseType_t xQueueGiveMutexRecursive( QueueHandle_t xMutex )
	{
 1001600:	defffa04 	addi	sp,sp,-24
 1001604:	dfc00515 	stw	ra,20(sp)
 1001608:	df000415 	stw	fp,16(sp)
 100160c:	dc000315 	stw	r16,12(sp)
 1001610:	df000404 	addi	fp,sp,16
 1001614:	e13ffe15 	stw	r4,-8(fp)
	BaseType_t xReturn;
	Queue_t * const pxMutex = ( Queue_t * ) xMutex;
 1001618:	e0bffe17 	ldw	r2,-8(fp)
 100161c:	e0bffd15 	stw	r2,-12(fp)
		change outside of this task.  If this task does not hold the mutex then
		pxMutexHolder can never coincidentally equal the tasks handle, and as
		this is the only condition we are interested in it does not matter if
		pxMutexHolder is accessed simultaneously by another task.  Therefore no
		mutual exclusion is required to test the pxMutexHolder variable. */
		if( pxMutex->u.xSemaphore.xMutexHolder == xTaskGetCurrentTaskHandle() )
 1001620:	e0bffd17 	ldw	r2,-12(fp)
 1001624:	14000217 	ldw	r16,8(r2)
 1001628:	1004ecc0 	call	1004ecc <xTaskGetCurrentTaskHandle>
 100162c:	8080101e 	bne	r16,r2,1001670 <xQueueGiveMutexRecursive+0x70>
			/* uxRecursiveCallCount cannot be zero if xMutexHolder is equal to
			the task handle, therefore no underflow check is required.  Also,
			uxRecursiveCallCount is only modified by the mutex holder, and as
			there can only be one, no mutual exclusion is required to modify the
			uxRecursiveCallCount member. */
			( pxMutex->u.xSemaphore.uxRecursiveCallCount )--;
 1001630:	e0bffd17 	ldw	r2,-12(fp)
 1001634:	10800317 	ldw	r2,12(r2)
 1001638:	10ffffc4 	addi	r3,r2,-1
 100163c:	e0bffd17 	ldw	r2,-12(fp)
 1001640:	10c00315 	stw	r3,12(r2)

			/* Has the recursive call count unwound to 0? */
			if( pxMutex->u.xSemaphore.uxRecursiveCallCount == ( UBaseType_t ) 0 )
 1001644:	e0bffd17 	ldw	r2,-12(fp)
 1001648:	10800317 	ldw	r2,12(r2)
 100164c:	1000051e 	bne	r2,zero,1001664 <xQueueGiveMutexRecursive+0x64>
			{
				/* Return the mutex.  This will automatically unblock any other
				task that might be waiting to access the mutex. */
				( void ) xQueueGenericSend( pxMutex, NULL, queueMUTEX_GIVE_BLOCK_TIME, queueSEND_TO_BACK );
 1001650:	000f883a 	mov	r7,zero
 1001654:	000d883a 	mov	r6,zero
 1001658:	000b883a 	mov	r5,zero
 100165c:	e13ffd17 	ldw	r4,-12(fp)
 1001660:	10017840 	call	1001784 <xQueueGenericSend>
			else
			{
				mtCOVERAGE_TEST_MARKER();
			}

			xReturn = pdPASS;
 1001664:	00800044 	movi	r2,1
 1001668:	e0bffc15 	stw	r2,-16(fp)
 100166c:	00000106 	br	1001674 <xQueueGiveMutexRecursive+0x74>
		}
		else
		{
			/* The mutex cannot be given because the calling task is not the
			holder. */
			xReturn = pdFAIL;
 1001670:	e03ffc15 	stw	zero,-16(fp)

			traceGIVE_MUTEX_RECURSIVE_FAILED( pxMutex );
		}

		return xReturn;
 1001674:	e0bffc17 	ldw	r2,-16(fp)
	}
 1001678:	e6ffff04 	addi	sp,fp,-4
 100167c:	dfc00217 	ldw	ra,8(sp)
 1001680:	df000117 	ldw	fp,4(sp)
 1001684:	dc000017 	ldw	r16,0(sp)
 1001688:	dec00304 	addi	sp,sp,12
 100168c:	f800283a 	ret

01001690 <xQueueTakeMutexRecursive>:
/*-----------------------------------------------------------*/

#if ( configUSE_RECURSIVE_MUTEXES == 1 )

	BaseType_t xQueueTakeMutexRecursive( QueueHandle_t xMutex, TickType_t xTicksToWait )
	{
 1001690:	defff904 	addi	sp,sp,-28
 1001694:	dfc00615 	stw	ra,24(sp)
 1001698:	df000515 	stw	fp,20(sp)
 100169c:	dc000415 	stw	r16,16(sp)
 10016a0:	df000504 	addi	fp,sp,20
 10016a4:	e13ffd15 	stw	r4,-12(fp)
 10016a8:	e17ffe15 	stw	r5,-8(fp)
	BaseType_t xReturn;
	Queue_t * const pxMutex = ( Queue_t * ) xMutex;
 10016ac:	e0bffd17 	ldw	r2,-12(fp)
 10016b0:	e0bffc15 	stw	r2,-16(fp)
		/* Comments regarding mutual exclusion as per those within
		xQueueGiveMutexRecursive(). */

		traceTAKE_MUTEX_RECURSIVE( pxMutex );

		if( pxMutex->u.xSemaphore.xMutexHolder == xTaskGetCurrentTaskHandle() )
 10016b4:	e0bffc17 	ldw	r2,-16(fp)
 10016b8:	14000217 	ldw	r16,8(r2)
 10016bc:	1004ecc0 	call	1004ecc <xTaskGetCurrentTaskHandle>
 10016c0:	8080081e 	bne	r16,r2,10016e4 <xQueueTakeMutexRecursive+0x54>
		{
			( pxMutex->u.xSemaphore.uxRecursiveCallCount )++;
 10016c4:	e0bffc17 	ldw	r2,-16(fp)
 10016c8:	10800317 	ldw	r2,12(r2)
 10016cc:	10c00044 	addi	r3,r2,1
 10016d0:	e0bffc17 	ldw	r2,-16(fp)
 10016d4:	10c00315 	stw	r3,12(r2)
			xReturn = pdPASS;
 10016d8:	00800044 	movi	r2,1
 10016dc:	e0bffb15 	stw	r2,-20(fp)
 10016e0:	00000b06 	br	1001710 <xQueueTakeMutexRecursive+0x80>
		}
		else
		{
			xReturn = xQueueSemaphoreTake( pxMutex, xTicksToWait );
 10016e4:	e17ffe17 	ldw	r5,-8(fp)
 10016e8:	e13ffc17 	ldw	r4,-16(fp)
 10016ec:	1001ca40 	call	1001ca4 <xQueueSemaphoreTake>
 10016f0:	e0bffb15 	stw	r2,-20(fp)

			/* pdPASS will only be returned if the mutex was successfully
			obtained.  The calling task may have entered the Blocked state
			before reaching here. */
			if( xReturn != pdFAIL )
 10016f4:	e0bffb17 	ldw	r2,-20(fp)
 10016f8:	10000526 	beq	r2,zero,1001710 <xQueueTakeMutexRecursive+0x80>
			{
				( pxMutex->u.xSemaphore.uxRecursiveCallCount )++;
 10016fc:	e0bffc17 	ldw	r2,-16(fp)
 1001700:	10800317 	ldw	r2,12(r2)
 1001704:	10c00044 	addi	r3,r2,1
 1001708:	e0bffc17 	ldw	r2,-16(fp)
 100170c:	10c00315 	stw	r3,12(r2)
			{
				traceTAKE_MUTEX_RECURSIVE_FAILED( pxMutex );
			}
		}

		return xReturn;
 1001710:	e0bffb17 	ldw	r2,-20(fp)
	}
 1001714:	e6ffff04 	addi	sp,fp,-4
 1001718:	dfc00217 	ldw	ra,8(sp)
 100171c:	df000117 	ldw	fp,4(sp)
 1001720:	dc000017 	ldw	r16,0(sp)
 1001724:	dec00304 	addi	sp,sp,12
 1001728:	f800283a 	ret

0100172c <xQueueCreateCountingSemaphore>:
/*-----------------------------------------------------------*/

#if( ( configUSE_COUNTING_SEMAPHORES == 1 ) && ( configSUPPORT_DYNAMIC_ALLOCATION == 1 ) )

	QueueHandle_t xQueueCreateCountingSemaphore( const UBaseType_t uxMaxCount, const UBaseType_t uxInitialCount )
	{
 100172c:	defffb04 	addi	sp,sp,-20
 1001730:	dfc00415 	stw	ra,16(sp)
 1001734:	df000315 	stw	fp,12(sp)
 1001738:	df000304 	addi	fp,sp,12
 100173c:	e13ffe15 	stw	r4,-8(fp)
 1001740:	e17fff15 	stw	r5,-4(fp)
	QueueHandle_t xHandle;

		configASSERT( uxMaxCount != 0 );
		configASSERT( uxInitialCount <= uxMaxCount );

		xHandle = xQueueGenericCreate( uxMaxCount, queueSEMAPHORE_QUEUE_ITEM_LENGTH, queueQUEUE_TYPE_COUNTING_SEMAPHORE );
 1001744:	01800084 	movi	r6,2
 1001748:	000b883a 	mov	r5,zero
 100174c:	e13ffe17 	ldw	r4,-8(fp)
 1001750:	10014180 	call	1001418 <xQueueGenericCreate>
 1001754:	e0bffd15 	stw	r2,-12(fp)

		if( xHandle != NULL )
 1001758:	e0bffd17 	ldw	r2,-12(fp)
 100175c:	10000326 	beq	r2,zero,100176c <xQueueCreateCountingSemaphore+0x40>
		{
			( ( Queue_t * ) xHandle )->uxMessagesWaiting = uxInitialCount;
 1001760:	e0bffd17 	ldw	r2,-12(fp)
 1001764:	e0ffff17 	ldw	r3,-4(fp)
 1001768:	10c00e15 	stw	r3,56(r2)
		else
		{
			traceCREATE_COUNTING_SEMAPHORE_FAILED();
		}

		return xHandle;
 100176c:	e0bffd17 	ldw	r2,-12(fp)
	}
 1001770:	e037883a 	mov	sp,fp
 1001774:	dfc00117 	ldw	ra,4(sp)
 1001778:	df000017 	ldw	fp,0(sp)
 100177c:	dec00204 	addi	sp,sp,8
 1001780:	f800283a 	ret

01001784 <xQueueGenericSend>:

#endif /* ( ( configUSE_COUNTING_SEMAPHORES == 1 ) && ( configSUPPORT_DYNAMIC_ALLOCATION == 1 ) ) */
/*-----------------------------------------------------------*/

BaseType_t xQueueGenericSend( QueueHandle_t xQueue, const void * const pvItemToQueue, TickType_t xTicksToWait, const BaseType_t xCopyPosition )
{
 1001784:	defff504 	addi	sp,sp,-44
 1001788:	dfc00a15 	stw	ra,40(sp)
 100178c:	df000915 	stw	fp,36(sp)
 1001790:	df000904 	addi	fp,sp,36
 1001794:	e13ffc15 	stw	r4,-16(fp)
 1001798:	e17ffd15 	stw	r5,-12(fp)
 100179c:	e1bffe15 	stw	r6,-8(fp)
 10017a0:	e1ffff15 	stw	r7,-4(fp)
BaseType_t xEntryTimeSet = pdFALSE, xYieldRequired;
 10017a4:	e03ff715 	stw	zero,-36(fp)
TimeOut_t xTimeOut;
Queue_t * const pxQueue = xQueue;
 10017a8:	e0bffc17 	ldw	r2,-16(fp)
 10017ac:	e0bff815 	stw	r2,-32(fp)
	/*lint -save -e904 This function relaxes the coding standard somewhat to
	allow return statements within the function itself.  This is done in the
	interest of execution time efficiency. */
	for( ;; )
	{
		taskENTER_CRITICAL();
 10017b0:	10052700 	call	1005270 <vTaskEnterCritical>
		{
			/* Is there room on the queue now?  The running task must be the
			highest priority task wanting to access the queue.  If the head item
			in the queue is to be overwritten then it does not matter if the
			queue is full. */
			if( ( pxQueue->uxMessagesWaiting < pxQueue->uxLength ) || ( xCopyPosition == queueOVERWRITE ) )
 10017b4:	e0bff817 	ldw	r2,-32(fp)
 10017b8:	10c00e17 	ldw	r3,56(r2)
 10017bc:	e0bff817 	ldw	r2,-32(fp)
 10017c0:	10800f17 	ldw	r2,60(r2)
 10017c4:	18800336 	bltu	r3,r2,10017d4 <xQueueGenericSend+0x50>
 10017c8:	e0bfff17 	ldw	r2,-4(fp)
 10017cc:	10800098 	cmpnei	r2,r2,2
 10017d0:	1000151e 	bne	r2,zero,1001828 <xQueueGenericSend+0xa4>
						}
					}
				}
				#else /* configUSE_QUEUE_SETS */
				{
					xYieldRequired = prvCopyDataToQueue( pxQueue, pvItemToQueue, xCopyPosition );
 10017d4:	e1bfff17 	ldw	r6,-4(fp)
 10017d8:	e17ffd17 	ldw	r5,-12(fp)
 10017dc:	e13ff817 	ldw	r4,-32(fp)
 10017e0:	100231c0 	call	100231c <prvCopyDataToQueue>
 10017e4:	e0bff915 	stw	r2,-28(fp)

					/* If there was a task waiting for data to arrive on the
					queue then unblock it now. */
					if( listLIST_IS_EMPTY( &( pxQueue->xTasksWaitingToReceive ) ) == pdFALSE )
 10017e8:	e0bff817 	ldw	r2,-32(fp)
 10017ec:	10800917 	ldw	r2,36(r2)
 10017f0:	10000726 	beq	r2,zero,1001810 <xQueueGenericSend+0x8c>
					{
						if( xTaskRemoveFromEventList( &( pxQueue->xTasksWaitingToReceive ) ) != pdFALSE )
 10017f4:	e0bff817 	ldw	r2,-32(fp)
 10017f8:	10800904 	addi	r2,r2,36
 10017fc:	1009883a 	mov	r4,r2
 1001800:	10048d00 	call	10048d0 <xTaskRemoveFromEventList>
 1001804:	10000526 	beq	r2,zero,100181c <xQueueGenericSend+0x98>
						{
							/* The unblocked task has a priority higher than
							our own so yield immediately.  Yes it is ok to do
							this from within the critical section - the kernel
							takes care of that. */
							queueYIELD_IF_USING_PREEMPTION();
 1001808:	003b683a 	trap	0
 100180c:	00000306 	br	100181c <xQueueGenericSend+0x98>
						else
						{
							mtCOVERAGE_TEST_MARKER();
						}
					}
					else if( xYieldRequired != pdFALSE )
 1001810:	e0bff917 	ldw	r2,-28(fp)
 1001814:	10000126 	beq	r2,zero,100181c <xQueueGenericSend+0x98>
					{
						/* This path is a special case that will only get
						executed if the task was holding multiple mutexes and
						the mutexes were given back in an order that is
						different to that in which they were taken. */
						queueYIELD_IF_USING_PREEMPTION();
 1001818:	003b683a 	trap	0
						mtCOVERAGE_TEST_MARKER();
					}
				}
				#endif /* configUSE_QUEUE_SETS */

				taskEXIT_CRITICAL();
 100181c:	10052c40 	call	10052c4 <vTaskExitCritical>
				return pdPASS;
 1001820:	00800044 	movi	r2,1
 1001824:	00003f06 	br	1001924 <xQueueGenericSend+0x1a0>
			}
			else
			{
				if( xTicksToWait == ( TickType_t ) 0 )
 1001828:	e0bffe17 	ldw	r2,-8(fp)
 100182c:	1000031e 	bne	r2,zero,100183c <xQueueGenericSend+0xb8>
				{
					/* The queue was full and no block time is specified (or
					the block time has expired) so leave now. */
					taskEXIT_CRITICAL();
 1001830:	10052c40 	call	10052c4 <vTaskExitCritical>

					/* Return to the original privilege level before exiting
					the function. */
					traceQUEUE_SEND_FAILED( pxQueue );
					return errQUEUE_FULL;
 1001834:	0005883a 	mov	r2,zero
 1001838:	00003a06 	br	1001924 <xQueueGenericSend+0x1a0>
				}
				else if( xEntryTimeSet == pdFALSE )
 100183c:	e0bff717 	ldw	r2,-36(fp)
 1001840:	1000051e 	bne	r2,zero,1001858 <xQueueGenericSend+0xd4>
				{
					/* The queue was full and a block time was specified so
					configure the timeout structure. */
					vTaskInternalSetTimeOutState( &xTimeOut );
 1001844:	e0bffa04 	addi	r2,fp,-24
 1001848:	1009883a 	mov	r4,r2
 100184c:	1004ad80 	call	1004ad8 <vTaskInternalSetTimeOutState>
					xEntryTimeSet = pdTRUE;
 1001850:	00800044 	movi	r2,1
 1001854:	e0bff715 	stw	r2,-36(fp)
					/* Entry time was already set. */
					mtCOVERAGE_TEST_MARKER();
				}
			}
		}
		taskEXIT_CRITICAL();
 1001858:	10052c40 	call	10052c4 <vTaskExitCritical>

		/* Interrupts and other tasks can send to and receive from the queue
		now the critical section has been exited. */

		vTaskSuspendAll();
 100185c:	100435c0 	call	100435c <vTaskSuspendAll>
		prvLockQueue( pxQueue );
 1001860:	10052700 	call	1005270 <vTaskEnterCritical>
 1001864:	e0bff817 	ldw	r2,-32(fp)
 1001868:	10801103 	ldbu	r2,68(r2)
 100186c:	10803fcc 	andi	r2,r2,255
 1001870:	1080201c 	xori	r2,r2,128
 1001874:	10bfe004 	addi	r2,r2,-128
 1001878:	10bfffd8 	cmpnei	r2,r2,-1
 100187c:	1000021e 	bne	r2,zero,1001888 <xQueueGenericSend+0x104>
 1001880:	e0bff817 	ldw	r2,-32(fp)
 1001884:	10001105 	stb	zero,68(r2)
 1001888:	e0bff817 	ldw	r2,-32(fp)
 100188c:	10801143 	ldbu	r2,69(r2)
 1001890:	10803fcc 	andi	r2,r2,255
 1001894:	1080201c 	xori	r2,r2,128
 1001898:	10bfe004 	addi	r2,r2,-128
 100189c:	10bfffd8 	cmpnei	r2,r2,-1
 10018a0:	1000021e 	bne	r2,zero,10018ac <xQueueGenericSend+0x128>
 10018a4:	e0bff817 	ldw	r2,-32(fp)
 10018a8:	10001145 	stb	zero,69(r2)
 10018ac:	10052c40 	call	10052c4 <vTaskExitCritical>

		/* Update the timeout state to see if it has expired yet. */
		if( xTaskCheckForTimeOut( &xTimeOut, &xTicksToWait ) == pdFALSE )
 10018b0:	e0fffe04 	addi	r3,fp,-8
 10018b4:	e0bffa04 	addi	r2,fp,-24
 10018b8:	180b883a 	mov	r5,r3
 10018bc:	1009883a 	mov	r4,r2
 10018c0:	1004b140 	call	1004b14 <xTaskCheckForTimeOut>
 10018c4:	1000131e 	bne	r2,zero,1001914 <xQueueGenericSend+0x190>
		{
			if( prvIsQueueFull( pxQueue ) != pdFALSE )
 10018c8:	e13ff817 	ldw	r4,-32(fp)
 10018cc:	10026d00 	call	10026d0 <prvIsQueueFull>
 10018d0:	10000c26 	beq	r2,zero,1001904 <xQueueGenericSend+0x180>
			{
				traceBLOCKING_ON_QUEUE_SEND( pxQueue );
				vTaskPlaceOnEventList( &( pxQueue->xTasksWaitingToSend ), xTicksToWait );
 10018d4:	e0bff817 	ldw	r2,-32(fp)
 10018d8:	10800404 	addi	r2,r2,16
 10018dc:	e0fffe17 	ldw	r3,-8(fp)
 10018e0:	180b883a 	mov	r5,r3
 10018e4:	1009883a 	mov	r4,r2
 10018e8:	100481c0 	call	100481c <vTaskPlaceOnEventList>
				/* Unlocking the queue means queue events can effect the
				event list.  It is possible that interrupts occurring now
				remove this task from the event list again - but as the
				scheduler is suspended the task will go onto the pending
				ready last instead of the actual ready list. */
				prvUnlockQueue( pxQueue );
 10018ec:	e13ff817 	ldw	r4,-32(fp)
 10018f0:	10025440 	call	1002544 <prvUnlockQueue>
				/* Resuming the scheduler will move tasks from the pending
				ready list into the ready list - so it is feasible that this
				task is already in a ready list before it yields - in which
				case the yield will not cause a context switch unless there
				is also a higher priority task in the pending ready list. */
				if( xTaskResumeAll() == pdFALSE )
 10018f4:	10043880 	call	1004388 <xTaskResumeAll>
 10018f8:	103fad1e 	bne	r2,zero,10017b0 <__alt_data_end+0xff0017b0>
				{
					portYIELD_WITHIN_API();
 10018fc:	003b683a 	trap	0
 1001900:	003fab06 	br	10017b0 <__alt_data_end+0xff0017b0>
				}
			}
			else
			{
				/* Try again. */
				prvUnlockQueue( pxQueue );
 1001904:	e13ff817 	ldw	r4,-32(fp)
 1001908:	10025440 	call	1002544 <prvUnlockQueue>
				( void ) xTaskResumeAll();
 100190c:	10043880 	call	1004388 <xTaskResumeAll>
 1001910:	003fa706 	br	10017b0 <__alt_data_end+0xff0017b0>
			}
		}
		else
		{
			/* The timeout has expired. */
			prvUnlockQueue( pxQueue );
 1001914:	e13ff817 	ldw	r4,-32(fp)
 1001918:	10025440 	call	1002544 <prvUnlockQueue>
			( void ) xTaskResumeAll();
 100191c:	10043880 	call	1004388 <xTaskResumeAll>

			traceQUEUE_SEND_FAILED( pxQueue );
			return errQUEUE_FULL;
 1001920:	0005883a 	mov	r2,zero
		}
	} /*lint -restore */
}
 1001924:	e037883a 	mov	sp,fp
 1001928:	dfc00117 	ldw	ra,4(sp)
 100192c:	df000017 	ldw	fp,0(sp)
 1001930:	dec00204 	addi	sp,sp,8
 1001934:	f800283a 	ret

01001938 <xQueueGenericSendFromISR>:
/*-----------------------------------------------------------*/

BaseType_t xQueueGenericSendFromISR( QueueHandle_t xQueue, const void * const pvItemToQueue, BaseType_t * const pxHigherPriorityTaskWoken, const BaseType_t xCopyPosition )
{
 1001938:	defff604 	addi	sp,sp,-40
 100193c:	dfc00915 	stw	ra,36(sp)
 1001940:	df000815 	stw	fp,32(sp)
 1001944:	df000804 	addi	fp,sp,32
 1001948:	e13ffc15 	stw	r4,-16(fp)
 100194c:	e17ffd15 	stw	r5,-12(fp)
 1001950:	e1bffe15 	stw	r6,-8(fp)
 1001954:	e1ffff15 	stw	r7,-4(fp)
BaseType_t xReturn;
UBaseType_t uxSavedInterruptStatus;
Queue_t * const pxQueue = xQueue;
 1001958:	e0bffc17 	ldw	r2,-16(fp)
 100195c:	e0bff915 	stw	r2,-28(fp)
	/* Similar to xQueueGenericSend, except without blocking if there is no room
	in the queue.  Also don't directly wake a task that was blocked on a queue
	read, instead return a flag to say whether a context switch is required or
	not (i.e. has a task with a higher priority than us been woken by this
	post). */
	uxSavedInterruptStatus = portSET_INTERRUPT_MASK_FROM_ISR();
 1001960:	e03ffa15 	stw	zero,-24(fp)
	{
		if( ( pxQueue->uxMessagesWaiting < pxQueue->uxLength ) || ( xCopyPosition == queueOVERWRITE ) )
 1001964:	e0bff917 	ldw	r2,-28(fp)
 1001968:	10c00e17 	ldw	r3,56(r2)
 100196c:	e0bff917 	ldw	r2,-28(fp)
 1001970:	10800f17 	ldw	r2,60(r2)
 1001974:	18800336 	bltu	r3,r2,1001984 <xQueueGenericSendFromISR+0x4c>
 1001978:	e0bfff17 	ldw	r2,-4(fp)
 100197c:	10800098 	cmpnei	r2,r2,2
 1001980:	1000201e 	bne	r2,zero,1001a04 <xQueueGenericSendFromISR+0xcc>
		{
			const int8_t cTxLock = pxQueue->cTxLock;
 1001984:	e0bff917 	ldw	r2,-28(fp)
 1001988:	10801143 	ldbu	r2,69(r2)
 100198c:	e0bffb05 	stb	r2,-20(fp)
			/* Semaphores use xQueueGiveFromISR(), so pxQueue will not be a
			semaphore or mutex.  That means prvCopyDataToQueue() cannot result
			in a task disinheriting a priority and prvCopyDataToQueue() can be
			called here even though the disinherit function does not check if
			the scheduler is suspended before accessing the ready lists. */
			( void ) prvCopyDataToQueue( pxQueue, pvItemToQueue, xCopyPosition );
 1001990:	e1bfff17 	ldw	r6,-4(fp)
 1001994:	e17ffd17 	ldw	r5,-12(fp)
 1001998:	e13ff917 	ldw	r4,-28(fp)
 100199c:	100231c0 	call	100231c <prvCopyDataToQueue>

			/* The event list is not altered if the queue is locked.  This will
			be done when the queue is unlocked later. */
			if( cTxLock == queueUNLOCKED )
 10019a0:	e0bffb07 	ldb	r2,-20(fp)
 10019a4:	10bfffd8 	cmpnei	r2,r2,-1
 10019a8:	10000e1e 	bne	r2,zero,10019e4 <xQueueGenericSendFromISR+0xac>
						}
					}
				}
				#else /* configUSE_QUEUE_SETS */
				{
					if( listLIST_IS_EMPTY( &( pxQueue->xTasksWaitingToReceive ) ) == pdFALSE )
 10019ac:	e0bff917 	ldw	r2,-28(fp)
 10019b0:	10800917 	ldw	r2,36(r2)
 10019b4:	10001026 	beq	r2,zero,10019f8 <xQueueGenericSendFromISR+0xc0>
					{
						if( xTaskRemoveFromEventList( &( pxQueue->xTasksWaitingToReceive ) ) != pdFALSE )
 10019b8:	e0bff917 	ldw	r2,-28(fp)
 10019bc:	10800904 	addi	r2,r2,36
 10019c0:	1009883a 	mov	r4,r2
 10019c4:	10048d00 	call	10048d0 <xTaskRemoveFromEventList>
 10019c8:	10000b26 	beq	r2,zero,10019f8 <xQueueGenericSendFromISR+0xc0>
						{
							/* The task waiting has a higher priority so record that a
							context	switch is required. */
							if( pxHigherPriorityTaskWoken != NULL )
 10019cc:	e0bffe17 	ldw	r2,-8(fp)
 10019d0:	10000926 	beq	r2,zero,10019f8 <xQueueGenericSendFromISR+0xc0>
							{
								*pxHigherPriorityTaskWoken = pdTRUE;
 10019d4:	e0bffe17 	ldw	r2,-8(fp)
 10019d8:	00c00044 	movi	r3,1
 10019dc:	10c00015 	stw	r3,0(r2)
 10019e0:	00000506 	br	10019f8 <xQueueGenericSendFromISR+0xc0>
			}
			else
			{
				/* Increment the lock count so the task that unlocks the queue
				knows that data was posted while it was locked. */
				pxQueue->cTxLock = ( int8_t ) ( cTxLock + 1 );
 10019e4:	e0bffb03 	ldbu	r2,-20(fp)
 10019e8:	10800044 	addi	r2,r2,1
 10019ec:	1007883a 	mov	r3,r2
 10019f0:	e0bff917 	ldw	r2,-28(fp)
 10019f4:	10c01145 	stb	r3,69(r2)
			}

			xReturn = pdPASS;
 10019f8:	00800044 	movi	r2,1
 10019fc:	e0bff815 	stw	r2,-32(fp)
	not (i.e. has a task with a higher priority than us been woken by this
	post). */
	uxSavedInterruptStatus = portSET_INTERRUPT_MASK_FROM_ISR();
	{
		if( ( pxQueue->uxMessagesWaiting < pxQueue->uxLength ) || ( xCopyPosition == queueOVERWRITE ) )
		{
 1001a00:	00000106 	br	1001a08 <xQueueGenericSendFromISR+0xd0>
			xReturn = pdPASS;
		}
		else
		{
			traceQUEUE_SEND_FROM_ISR_FAILED( pxQueue );
			xReturn = errQUEUE_FULL;
 1001a04:	e03ff815 	stw	zero,-32(fp)
		}
	}
	portCLEAR_INTERRUPT_MASK_FROM_ISR( uxSavedInterruptStatus );

	return xReturn;
 1001a08:	e0bff817 	ldw	r2,-32(fp)
}
 1001a0c:	e037883a 	mov	sp,fp
 1001a10:	dfc00117 	ldw	ra,4(sp)
 1001a14:	df000017 	ldw	fp,0(sp)
 1001a18:	dec00204 	addi	sp,sp,8
 1001a1c:	f800283a 	ret

01001a20 <xQueueGiveFromISR>:
/*-----------------------------------------------------------*/

BaseType_t xQueueGiveFromISR( QueueHandle_t xQueue, BaseType_t * const pxHigherPriorityTaskWoken )
{
 1001a20:	defff704 	addi	sp,sp,-36
 1001a24:	dfc00815 	stw	ra,32(sp)
 1001a28:	df000715 	stw	fp,28(sp)
 1001a2c:	df000704 	addi	fp,sp,28
 1001a30:	e13ffe15 	stw	r4,-8(fp)
 1001a34:	e17fff15 	stw	r5,-4(fp)
BaseType_t xReturn;
UBaseType_t uxSavedInterruptStatus;
Queue_t * const pxQueue = xQueue;
 1001a38:	e0bffe17 	ldw	r2,-8(fp)
 1001a3c:	e0bffa15 	stw	r2,-24(fp)
	safe API to ensure interrupt entry is as fast and as simple as possible.
	More information (albeit Cortex-M specific) is provided on the following
	link: http://www.freertos.org/RTOS-Cortex-M3-M4.html */
	portASSERT_IF_INTERRUPT_PRIORITY_INVALID();

	uxSavedInterruptStatus = portSET_INTERRUPT_MASK_FROM_ISR();
 1001a40:	e03ffb15 	stw	zero,-20(fp)
	{
		const UBaseType_t uxMessagesWaiting = pxQueue->uxMessagesWaiting;
 1001a44:	e0bffa17 	ldw	r2,-24(fp)
 1001a48:	10800e17 	ldw	r2,56(r2)
 1001a4c:	e0bffc15 	stw	r2,-16(fp)

		/* When the queue is used to implement a semaphore no data is ever
		moved through the queue but it is still valid to see if the queue 'has
		space'. */
		if( uxMessagesWaiting < pxQueue->uxLength )
 1001a50:	e0bffa17 	ldw	r2,-24(fp)
 1001a54:	10800f17 	ldw	r2,60(r2)
 1001a58:	e0fffc17 	ldw	r3,-16(fp)
 1001a5c:	1880202e 	bgeu	r3,r2,1001ae0 <xQueueGiveFromISR+0xc0>
		{
			const int8_t cTxLock = pxQueue->cTxLock;
 1001a60:	e0bffa17 	ldw	r2,-24(fp)
 1001a64:	10801143 	ldbu	r2,69(r2)
 1001a68:	e0bffd05 	stb	r2,-12(fp)
			holder - and if there is a mutex holder then the mutex cannot be
			given from an ISR.  As this is the ISR version of the function it
			can be assumed there is no mutex holder and no need to determine if
			priority disinheritance is needed.  Simply increase the count of
			messages (semaphores) available. */
			pxQueue->uxMessagesWaiting = uxMessagesWaiting + ( UBaseType_t ) 1;
 1001a6c:	e0bffc17 	ldw	r2,-16(fp)
 1001a70:	10c00044 	addi	r3,r2,1
 1001a74:	e0bffa17 	ldw	r2,-24(fp)
 1001a78:	10c00e15 	stw	r3,56(r2)

			/* The event list is not altered if the queue is locked.  This will
			be done when the queue is unlocked later. */
			if( cTxLock == queueUNLOCKED )
 1001a7c:	e0bffd07 	ldb	r2,-12(fp)
 1001a80:	10bfffd8 	cmpnei	r2,r2,-1
 1001a84:	10000e1e 	bne	r2,zero,1001ac0 <xQueueGiveFromISR+0xa0>
						}
					}
				}
				#else /* configUSE_QUEUE_SETS */
				{
					if( listLIST_IS_EMPTY( &( pxQueue->xTasksWaitingToReceive ) ) == pdFALSE )
 1001a88:	e0bffa17 	ldw	r2,-24(fp)
 1001a8c:	10800917 	ldw	r2,36(r2)
 1001a90:	10001026 	beq	r2,zero,1001ad4 <xQueueGiveFromISR+0xb4>
					{
						if( xTaskRemoveFromEventList( &( pxQueue->xTasksWaitingToReceive ) ) != pdFALSE )
 1001a94:	e0bffa17 	ldw	r2,-24(fp)
 1001a98:	10800904 	addi	r2,r2,36
 1001a9c:	1009883a 	mov	r4,r2
 1001aa0:	10048d00 	call	10048d0 <xTaskRemoveFromEventList>
 1001aa4:	10000b26 	beq	r2,zero,1001ad4 <xQueueGiveFromISR+0xb4>
						{
							/* The task waiting has a higher priority so record that a
							context	switch is required. */
							if( pxHigherPriorityTaskWoken != NULL )
 1001aa8:	e0bfff17 	ldw	r2,-4(fp)
 1001aac:	10000926 	beq	r2,zero,1001ad4 <xQueueGiveFromISR+0xb4>
							{
								*pxHigherPriorityTaskWoken = pdTRUE;
 1001ab0:	e0bfff17 	ldw	r2,-4(fp)
 1001ab4:	00c00044 	movi	r3,1
 1001ab8:	10c00015 	stw	r3,0(r2)
 1001abc:	00000506 	br	1001ad4 <xQueueGiveFromISR+0xb4>
			}
			else
			{
				/* Increment the lock count so the task that unlocks the queue
				knows that data was posted while it was locked. */
				pxQueue->cTxLock = ( int8_t ) ( cTxLock + 1 );
 1001ac0:	e0bffd03 	ldbu	r2,-12(fp)
 1001ac4:	10800044 	addi	r2,r2,1
 1001ac8:	1007883a 	mov	r3,r2
 1001acc:	e0bffa17 	ldw	r2,-24(fp)
 1001ad0:	10c01145 	stb	r3,69(r2)
			}

			xReturn = pdPASS;
 1001ad4:	00800044 	movi	r2,1
 1001ad8:	e0bff915 	stw	r2,-28(fp)
 1001adc:	00000106 	br	1001ae4 <xQueueGiveFromISR+0xc4>
		}
		else
		{
			traceQUEUE_SEND_FROM_ISR_FAILED( pxQueue );
			xReturn = errQUEUE_FULL;
 1001ae0:	e03ff915 	stw	zero,-28(fp)
		}
	}
	portCLEAR_INTERRUPT_MASK_FROM_ISR( uxSavedInterruptStatus );

	return xReturn;
 1001ae4:	e0bff917 	ldw	r2,-28(fp)
}
 1001ae8:	e037883a 	mov	sp,fp
 1001aec:	dfc00117 	ldw	ra,4(sp)
 1001af0:	df000017 	ldw	fp,0(sp)
 1001af4:	dec00204 	addi	sp,sp,8
 1001af8:	f800283a 	ret

01001afc <xQueueReceive>:
/*-----------------------------------------------------------*/

BaseType_t xQueueReceive( QueueHandle_t xQueue, void * const pvBuffer, TickType_t xTicksToWait )
{
 1001afc:	defff604 	addi	sp,sp,-40
 1001b00:	dfc00915 	stw	ra,36(sp)
 1001b04:	df000815 	stw	fp,32(sp)
 1001b08:	df000804 	addi	fp,sp,32
 1001b0c:	e13ffd15 	stw	r4,-12(fp)
 1001b10:	e17ffe15 	stw	r5,-8(fp)
 1001b14:	e1bfff15 	stw	r6,-4(fp)
BaseType_t xEntryTimeSet = pdFALSE;
 1001b18:	e03ff815 	stw	zero,-32(fp)
TimeOut_t xTimeOut;
Queue_t * const pxQueue = xQueue;
 1001b1c:	e0bffd17 	ldw	r2,-12(fp)
 1001b20:	e0bff915 	stw	r2,-28(fp)
	/*lint -save -e904  This function relaxes the coding standard somewhat to
	allow return statements within the function itself.  This is done in the
	interest of execution time efficiency. */
	for( ;; )
	{
		taskENTER_CRITICAL();
 1001b24:	10052700 	call	1005270 <vTaskEnterCritical>
		{
			const UBaseType_t uxMessagesWaiting = pxQueue->uxMessagesWaiting;
 1001b28:	e0bff917 	ldw	r2,-28(fp)
 1001b2c:	10800e17 	ldw	r2,56(r2)
 1001b30:	e0bffa15 	stw	r2,-24(fp)

			/* Is there data in the queue now?  To be running the calling task
			must be the highest priority task wanting to access the queue. */
			if( uxMessagesWaiting > ( UBaseType_t ) 0 )
 1001b34:	e0bffa17 	ldw	r2,-24(fp)
 1001b38:	10001326 	beq	r2,zero,1001b88 <xQueueReceive+0x8c>
			{
				/* Data available, remove one item. */
				prvCopyDataFromQueue( pxQueue, pvBuffer );
 1001b3c:	e17ffe17 	ldw	r5,-8(fp)
 1001b40:	e13ff917 	ldw	r4,-28(fp)
 1001b44:	10024a80 	call	10024a8 <prvCopyDataFromQueue>
				traceQUEUE_RECEIVE( pxQueue );
				pxQueue->uxMessagesWaiting = uxMessagesWaiting - ( UBaseType_t ) 1;
 1001b48:	e0bffa17 	ldw	r2,-24(fp)
 1001b4c:	10ffffc4 	addi	r3,r2,-1
 1001b50:	e0bff917 	ldw	r2,-28(fp)
 1001b54:	10c00e15 	stw	r3,56(r2)

				/* There is now space in the queue, were any tasks waiting to
				post to the queue?  If so, unblock the highest priority waiting
				task. */
				if( listLIST_IS_EMPTY( &( pxQueue->xTasksWaitingToSend ) ) == pdFALSE )
 1001b58:	e0bff917 	ldw	r2,-28(fp)
 1001b5c:	10800417 	ldw	r2,16(r2)
 1001b60:	10000626 	beq	r2,zero,1001b7c <xQueueReceive+0x80>
				{
					if( xTaskRemoveFromEventList( &( pxQueue->xTasksWaitingToSend ) ) != pdFALSE )
 1001b64:	e0bff917 	ldw	r2,-28(fp)
 1001b68:	10800404 	addi	r2,r2,16
 1001b6c:	1009883a 	mov	r4,r2
 1001b70:	10048d00 	call	10048d0 <xTaskRemoveFromEventList>
 1001b74:	10000126 	beq	r2,zero,1001b7c <xQueueReceive+0x80>
					{
						queueYIELD_IF_USING_PREEMPTION();
 1001b78:	003b683a 	trap	0
				else
				{
					mtCOVERAGE_TEST_MARKER();
				}

				taskEXIT_CRITICAL();
 1001b7c:	10052c40 	call	10052c4 <vTaskExitCritical>
				return pdPASS;
 1001b80:	00800044 	movi	r2,1
 1001b84:	00004206 	br	1001c90 <xQueueReceive+0x194>
			}
			else
			{
				if( xTicksToWait == ( TickType_t ) 0 )
 1001b88:	e0bfff17 	ldw	r2,-4(fp)
 1001b8c:	1000031e 	bne	r2,zero,1001b9c <xQueueReceive+0xa0>
				{
					/* The queue was empty and no block time is specified (or
					the block time has expired) so leave now. */
					taskEXIT_CRITICAL();
 1001b90:	10052c40 	call	10052c4 <vTaskExitCritical>
					traceQUEUE_RECEIVE_FAILED( pxQueue );
					return errQUEUE_EMPTY;
 1001b94:	0005883a 	mov	r2,zero
 1001b98:	00003d06 	br	1001c90 <xQueueReceive+0x194>
				}
				else if( xEntryTimeSet == pdFALSE )
 1001b9c:	e0bff817 	ldw	r2,-32(fp)
 1001ba0:	1000051e 	bne	r2,zero,1001bb8 <xQueueReceive+0xbc>
				{
					/* The queue was empty and a block time was specified so
					configure the timeout structure. */
					vTaskInternalSetTimeOutState( &xTimeOut );
 1001ba4:	e0bffb04 	addi	r2,fp,-20
 1001ba8:	1009883a 	mov	r4,r2
 1001bac:	1004ad80 	call	1004ad8 <vTaskInternalSetTimeOutState>
					xEntryTimeSet = pdTRUE;
 1001bb0:	00800044 	movi	r2,1
 1001bb4:	e0bff815 	stw	r2,-32(fp)
					/* Entry time was already set. */
					mtCOVERAGE_TEST_MARKER();
				}
			}
		}
		taskEXIT_CRITICAL();
 1001bb8:	10052c40 	call	10052c4 <vTaskExitCritical>

		/* Interrupts and other tasks can send to and receive from the queue
		now the critical section has been exited. */

		vTaskSuspendAll();
 1001bbc:	100435c0 	call	100435c <vTaskSuspendAll>
		prvLockQueue( pxQueue );
 1001bc0:	10052700 	call	1005270 <vTaskEnterCritical>
 1001bc4:	e0bff917 	ldw	r2,-28(fp)
 1001bc8:	10801103 	ldbu	r2,68(r2)
 1001bcc:	10803fcc 	andi	r2,r2,255
 1001bd0:	1080201c 	xori	r2,r2,128
 1001bd4:	10bfe004 	addi	r2,r2,-128
 1001bd8:	10bfffd8 	cmpnei	r2,r2,-1
 1001bdc:	1000021e 	bne	r2,zero,1001be8 <xQueueReceive+0xec>
 1001be0:	e0bff917 	ldw	r2,-28(fp)
 1001be4:	10001105 	stb	zero,68(r2)
 1001be8:	e0bff917 	ldw	r2,-28(fp)
 1001bec:	10801143 	ldbu	r2,69(r2)
 1001bf0:	10803fcc 	andi	r2,r2,255
 1001bf4:	1080201c 	xori	r2,r2,128
 1001bf8:	10bfe004 	addi	r2,r2,-128
 1001bfc:	10bfffd8 	cmpnei	r2,r2,-1
 1001c00:	1000021e 	bne	r2,zero,1001c0c <xQueueReceive+0x110>
 1001c04:	e0bff917 	ldw	r2,-28(fp)
 1001c08:	10001145 	stb	zero,69(r2)
 1001c0c:	10052c40 	call	10052c4 <vTaskExitCritical>

		/* Update the timeout state to see if it has expired yet. */
		if( xTaskCheckForTimeOut( &xTimeOut, &xTicksToWait ) == pdFALSE )
 1001c10:	e0ffff04 	addi	r3,fp,-4
 1001c14:	e0bffb04 	addi	r2,fp,-20
 1001c18:	180b883a 	mov	r5,r3
 1001c1c:	1009883a 	mov	r4,r2
 1001c20:	1004b140 	call	1004b14 <xTaskCheckForTimeOut>
 1001c24:	1000131e 	bne	r2,zero,1001c74 <xQueueReceive+0x178>
		{
			/* The timeout has not expired.  If the queue is still empty place
			the task on the list of tasks waiting to receive from the queue. */
			if( prvIsQueueEmpty( pxQueue ) != pdFALSE )
 1001c28:	e13ff917 	ldw	r4,-28(fp)
 1001c2c:	10026380 	call	1002638 <prvIsQueueEmpty>
 1001c30:	10000c26 	beq	r2,zero,1001c64 <xQueueReceive+0x168>
			{
				traceBLOCKING_ON_QUEUE_RECEIVE( pxQueue );
				vTaskPlaceOnEventList( &( pxQueue->xTasksWaitingToReceive ), xTicksToWait );
 1001c34:	e0bff917 	ldw	r2,-28(fp)
 1001c38:	10800904 	addi	r2,r2,36
 1001c3c:	e0ffff17 	ldw	r3,-4(fp)
 1001c40:	180b883a 	mov	r5,r3
 1001c44:	1009883a 	mov	r4,r2
 1001c48:	100481c0 	call	100481c <vTaskPlaceOnEventList>
				prvUnlockQueue( pxQueue );
 1001c4c:	e13ff917 	ldw	r4,-28(fp)
 1001c50:	10025440 	call	1002544 <prvUnlockQueue>
				if( xTaskResumeAll() == pdFALSE )
 1001c54:	10043880 	call	1004388 <xTaskResumeAll>
 1001c58:	103fb21e 	bne	r2,zero,1001b24 <__alt_data_end+0xff001b24>
				{
					portYIELD_WITHIN_API();
 1001c5c:	003b683a 	trap	0
 1001c60:	003fb006 	br	1001b24 <__alt_data_end+0xff001b24>
			}
			else
			{
				/* The queue contains data again.  Loop back to try and read the
				data. */
				prvUnlockQueue( pxQueue );
 1001c64:	e13ff917 	ldw	r4,-28(fp)
 1001c68:	10025440 	call	1002544 <prvUnlockQueue>
				( void ) xTaskResumeAll();
 1001c6c:	10043880 	call	1004388 <xTaskResumeAll>
 1001c70:	003fac06 	br	1001b24 <__alt_data_end+0xff001b24>
		}
		else
		{
			/* Timed out.  If there is no data in the queue exit, otherwise loop
			back and attempt to read the data. */
			prvUnlockQueue( pxQueue );
 1001c74:	e13ff917 	ldw	r4,-28(fp)
 1001c78:	10025440 	call	1002544 <prvUnlockQueue>
			( void ) xTaskResumeAll();
 1001c7c:	10043880 	call	1004388 <xTaskResumeAll>

			if( prvIsQueueEmpty( pxQueue ) != pdFALSE )
 1001c80:	e13ff917 	ldw	r4,-28(fp)
 1001c84:	10026380 	call	1002638 <prvIsQueueEmpty>
 1001c88:	103fa626 	beq	r2,zero,1001b24 <__alt_data_end+0xff001b24>
			{
				traceQUEUE_RECEIVE_FAILED( pxQueue );
				return errQUEUE_EMPTY;
 1001c8c:	0005883a 	mov	r2,zero
			{
				mtCOVERAGE_TEST_MARKER();
			}
		}
	} /*lint -restore */
}
 1001c90:	e037883a 	mov	sp,fp
 1001c94:	dfc00117 	ldw	ra,4(sp)
 1001c98:	df000017 	ldw	fp,0(sp)
 1001c9c:	dec00204 	addi	sp,sp,8
 1001ca0:	f800283a 	ret

01001ca4 <xQueueSemaphoreTake>:
/*-----------------------------------------------------------*/

BaseType_t xQueueSemaphoreTake( QueueHandle_t xQueue, TickType_t xTicksToWait )
{
 1001ca4:	defff504 	addi	sp,sp,-44
 1001ca8:	dfc00a15 	stw	ra,40(sp)
 1001cac:	df000915 	stw	fp,36(sp)
 1001cb0:	df000904 	addi	fp,sp,36
 1001cb4:	e13ffe15 	stw	r4,-8(fp)
 1001cb8:	e17fff15 	stw	r5,-4(fp)
BaseType_t xEntryTimeSet = pdFALSE;
 1001cbc:	e03ff715 	stw	zero,-36(fp)
TimeOut_t xTimeOut;
Queue_t * const pxQueue = xQueue;
 1001cc0:	e0bffe17 	ldw	r2,-8(fp)
 1001cc4:	e0bff915 	stw	r2,-28(fp)

#if( configUSE_MUTEXES == 1 )
	BaseType_t xInheritanceOccurred = pdFALSE;
 1001cc8:	e03ff815 	stw	zero,-32(fp)
	/*lint -save -e904 This function relaxes the coding standard somewhat to allow return
	statements within the function itself.  This is done in the interest
	of execution time efficiency. */
	for( ;; )
	{
		taskENTER_CRITICAL();
 1001ccc:	10052700 	call	1005270 <vTaskEnterCritical>
		{
			/* Semaphores are queues with an item size of 0, and where the
			number of messages in the queue is the semaphore's count value. */
			const UBaseType_t uxSemaphoreCount = pxQueue->uxMessagesWaiting;
 1001cd0:	e0bff917 	ldw	r2,-28(fp)
 1001cd4:	10800e17 	ldw	r2,56(r2)
 1001cd8:	e0bffa15 	stw	r2,-24(fp)

			/* Is there data in the queue now?  To be running the calling task
			must be the highest priority task wanting to access the queue. */
			if( uxSemaphoreCount > ( UBaseType_t ) 0 )
 1001cdc:	e0bffa17 	ldw	r2,-24(fp)
 1001ce0:	10001726 	beq	r2,zero,1001d40 <xQueueSemaphoreTake+0x9c>
			{
				traceQUEUE_RECEIVE( pxQueue );

				/* Semaphores are queues with a data size of zero and where the
				messages waiting is the semaphore's count.  Reduce the count. */
				pxQueue->uxMessagesWaiting = uxSemaphoreCount - ( UBaseType_t ) 1;
 1001ce4:	e0bffa17 	ldw	r2,-24(fp)
 1001ce8:	10ffffc4 	addi	r3,r2,-1
 1001cec:	e0bff917 	ldw	r2,-28(fp)
 1001cf0:	10c00e15 	stw	r3,56(r2)

				#if ( configUSE_MUTEXES == 1 )
				{
					if( pxQueue->uxQueueType == queueQUEUE_IS_MUTEX )
 1001cf4:	e0bff917 	ldw	r2,-28(fp)
 1001cf8:	10800017 	ldw	r2,0(r2)
 1001cfc:	1000041e 	bne	r2,zero,1001d10 <xQueueSemaphoreTake+0x6c>
					{
						/* Record the information required to implement
						priority inheritance should it become necessary. */
						pxQueue->u.xSemaphore.xMutexHolder = pvTaskIncrementMutexHeldCount();
 1001d00:	10053680 	call	1005368 <pvTaskIncrementMutexHeldCount>
 1001d04:	1007883a 	mov	r3,r2
 1001d08:	e0bff917 	ldw	r2,-28(fp)
 1001d0c:	10c00215 	stw	r3,8(r2)
				}
				#endif /* configUSE_MUTEXES */

				/* Check to see if other tasks are blocked waiting to give the
				semaphore, and if so, unblock the highest priority such task. */
				if( listLIST_IS_EMPTY( &( pxQueue->xTasksWaitingToSend ) ) == pdFALSE )
 1001d10:	e0bff917 	ldw	r2,-28(fp)
 1001d14:	10800417 	ldw	r2,16(r2)
 1001d18:	10000626 	beq	r2,zero,1001d34 <xQueueSemaphoreTake+0x90>
				{
					if( xTaskRemoveFromEventList( &( pxQueue->xTasksWaitingToSend ) ) != pdFALSE )
 1001d1c:	e0bff917 	ldw	r2,-28(fp)
 1001d20:	10800404 	addi	r2,r2,16
 1001d24:	1009883a 	mov	r4,r2
 1001d28:	10048d00 	call	10048d0 <xTaskRemoveFromEventList>
 1001d2c:	10000126 	beq	r2,zero,1001d34 <xQueueSemaphoreTake+0x90>
					{
						queueYIELD_IF_USING_PREEMPTION();
 1001d30:	003b683a 	trap	0
				else
				{
					mtCOVERAGE_TEST_MARKER();
				}

				taskEXIT_CRITICAL();
 1001d34:	10052c40 	call	10052c4 <vTaskExitCritical>
				return pdPASS;
 1001d38:	00800044 	movi	r2,1
 1001d3c:	00005806 	br	1001ea0 <xQueueSemaphoreTake+0x1fc>
			}
			else
			{
				if( xTicksToWait == ( TickType_t ) 0 )
 1001d40:	e0bfff17 	ldw	r2,-4(fp)
 1001d44:	1000031e 	bne	r2,zero,1001d54 <xQueueSemaphoreTake+0xb0>
					}
					#endif /* configUSE_MUTEXES */

					/* The semaphore count was 0 and no block time is specified
					(or the block time has expired) so exit now. */
					taskEXIT_CRITICAL();
 1001d48:	10052c40 	call	10052c4 <vTaskExitCritical>
					traceQUEUE_RECEIVE_FAILED( pxQueue );
					return errQUEUE_EMPTY;
 1001d4c:	0005883a 	mov	r2,zero
 1001d50:	00005306 	br	1001ea0 <xQueueSemaphoreTake+0x1fc>
				}
				else if( xEntryTimeSet == pdFALSE )
 1001d54:	e0bff717 	ldw	r2,-36(fp)
 1001d58:	1000051e 	bne	r2,zero,1001d70 <xQueueSemaphoreTake+0xcc>
				{
					/* The semaphore count was 0 and a block time was specified
					so configure the timeout structure ready to block. */
					vTaskInternalSetTimeOutState( &xTimeOut );
 1001d5c:	e0bffc04 	addi	r2,fp,-16
 1001d60:	1009883a 	mov	r4,r2
 1001d64:	1004ad80 	call	1004ad8 <vTaskInternalSetTimeOutState>
					xEntryTimeSet = pdTRUE;
 1001d68:	00800044 	movi	r2,1
 1001d6c:	e0bff715 	stw	r2,-36(fp)
					/* Entry time was already set. */
					mtCOVERAGE_TEST_MARKER();
				}
			}
		}
		taskEXIT_CRITICAL();
 1001d70:	10052c40 	call	10052c4 <vTaskExitCritical>

		/* Interrupts and other tasks can give to and take from the semaphore
		now the critical section has been exited. */

		vTaskSuspendAll();
 1001d74:	100435c0 	call	100435c <vTaskSuspendAll>
		prvLockQueue( pxQueue );
 1001d78:	10052700 	call	1005270 <vTaskEnterCritical>
 1001d7c:	e0bff917 	ldw	r2,-28(fp)
 1001d80:	10801103 	ldbu	r2,68(r2)
 1001d84:	10803fcc 	andi	r2,r2,255
 1001d88:	1080201c 	xori	r2,r2,128
 1001d8c:	10bfe004 	addi	r2,r2,-128
 1001d90:	10bfffd8 	cmpnei	r2,r2,-1
 1001d94:	1000021e 	bne	r2,zero,1001da0 <xQueueSemaphoreTake+0xfc>
 1001d98:	e0bff917 	ldw	r2,-28(fp)
 1001d9c:	10001105 	stb	zero,68(r2)
 1001da0:	e0bff917 	ldw	r2,-28(fp)
 1001da4:	10801143 	ldbu	r2,69(r2)
 1001da8:	10803fcc 	andi	r2,r2,255
 1001dac:	1080201c 	xori	r2,r2,128
 1001db0:	10bfe004 	addi	r2,r2,-128
 1001db4:	10bfffd8 	cmpnei	r2,r2,-1
 1001db8:	1000021e 	bne	r2,zero,1001dc4 <xQueueSemaphoreTake+0x120>
 1001dbc:	e0bff917 	ldw	r2,-28(fp)
 1001dc0:	10001145 	stb	zero,69(r2)
 1001dc4:	10052c40 	call	10052c4 <vTaskExitCritical>

		/* Update the timeout state to see if it has expired yet. */
		if( xTaskCheckForTimeOut( &xTimeOut, &xTicksToWait ) == pdFALSE )
 1001dc8:	e0ffff04 	addi	r3,fp,-4
 1001dcc:	e0bffc04 	addi	r2,fp,-16
 1001dd0:	180b883a 	mov	r5,r3
 1001dd4:	1009883a 	mov	r4,r2
 1001dd8:	1004b140 	call	1004b14 <xTaskCheckForTimeOut>
 1001ddc:	10001d1e 	bne	r2,zero,1001e54 <xQueueSemaphoreTake+0x1b0>
		{
			/* A block time is specified and not expired.  If the semaphore
			count is 0 then enter the Blocked state to wait for a semaphore to
			become available.  As semaphores are implemented with queues the
			queue being empty is equivalent to the semaphore count being 0. */
			if( prvIsQueueEmpty( pxQueue ) != pdFALSE )
 1001de0:	e13ff917 	ldw	r4,-28(fp)
 1001de4:	10026380 	call	1002638 <prvIsQueueEmpty>
 1001de8:	10001626 	beq	r2,zero,1001e44 <xQueueSemaphoreTake+0x1a0>
			{
				traceBLOCKING_ON_QUEUE_RECEIVE( pxQueue );

				#if ( configUSE_MUTEXES == 1 )
				{
					if( pxQueue->uxQueueType == queueQUEUE_IS_MUTEX )
 1001dec:	e0bff917 	ldw	r2,-28(fp)
 1001df0:	10800017 	ldw	r2,0(r2)
 1001df4:	1000071e 	bne	r2,zero,1001e14 <xQueueSemaphoreTake+0x170>
					{
						taskENTER_CRITICAL();
 1001df8:	10052700 	call	1005270 <vTaskEnterCritical>
						{
							xInheritanceOccurred = xTaskPriorityInherit( pxQueue->u.xSemaphore.xMutexHolder );
 1001dfc:	e0bff917 	ldw	r2,-28(fp)
 1001e00:	10800217 	ldw	r2,8(r2)
 1001e04:	1009883a 	mov	r4,r2
 1001e08:	1004ef40 	call	1004ef4 <xTaskPriorityInherit>
 1001e0c:	e0bff815 	stw	r2,-32(fp)
						}
						taskEXIT_CRITICAL();
 1001e10:	10052c40 	call	10052c4 <vTaskExitCritical>
						mtCOVERAGE_TEST_MARKER();
					}
				}
				#endif

				vTaskPlaceOnEventList( &( pxQueue->xTasksWaitingToReceive ), xTicksToWait );
 1001e14:	e0bff917 	ldw	r2,-28(fp)
 1001e18:	10800904 	addi	r2,r2,36
 1001e1c:	e0ffff17 	ldw	r3,-4(fp)
 1001e20:	180b883a 	mov	r5,r3
 1001e24:	1009883a 	mov	r4,r2
 1001e28:	100481c0 	call	100481c <vTaskPlaceOnEventList>
				prvUnlockQueue( pxQueue );
 1001e2c:	e13ff917 	ldw	r4,-28(fp)
 1001e30:	10025440 	call	1002544 <prvUnlockQueue>
				if( xTaskResumeAll() == pdFALSE )
 1001e34:	10043880 	call	1004388 <xTaskResumeAll>
 1001e38:	103fa41e 	bne	r2,zero,1001ccc <__alt_data_end+0xff001ccc>
				{
					portYIELD_WITHIN_API();
 1001e3c:	003b683a 	trap	0
 1001e40:	003fa206 	br	1001ccc <__alt_data_end+0xff001ccc>
			}
			else
			{
				/* There was no timeout and the semaphore count was not 0, so
				attempt to take the semaphore again. */
				prvUnlockQueue( pxQueue );
 1001e44:	e13ff917 	ldw	r4,-28(fp)
 1001e48:	10025440 	call	1002544 <prvUnlockQueue>
				( void ) xTaskResumeAll();
 1001e4c:	10043880 	call	1004388 <xTaskResumeAll>
 1001e50:	003f9e06 	br	1001ccc <__alt_data_end+0xff001ccc>
			}
		}
		else
		{
			/* Timed out. */
			prvUnlockQueue( pxQueue );
 1001e54:	e13ff917 	ldw	r4,-28(fp)
 1001e58:	10025440 	call	1002544 <prvUnlockQueue>
			( void ) xTaskResumeAll();
 1001e5c:	10043880 	call	1004388 <xTaskResumeAll>

			/* If the semaphore count is 0 exit now as the timeout has
			expired.  Otherwise return to attempt to take the semaphore that is
			known to be available.  As semaphores are implemented by queues the
			queue being empty is equivalent to the semaphore count being 0. */
			if( prvIsQueueEmpty( pxQueue ) != pdFALSE )
 1001e60:	e13ff917 	ldw	r4,-28(fp)
 1001e64:	10026380 	call	1002638 <prvIsQueueEmpty>
 1001e68:	103f9826 	beq	r2,zero,1001ccc <__alt_data_end+0xff001ccc>
				#if ( configUSE_MUTEXES == 1 )
				{
					/* xInheritanceOccurred could only have be set if
					pxQueue->uxQueueType == queueQUEUE_IS_MUTEX so no need to
					test the mutex type again to check it is actually a mutex. */
					if( xInheritanceOccurred != pdFALSE )
 1001e6c:	e0bff817 	ldw	r2,-32(fp)
 1001e70:	10000a26 	beq	r2,zero,1001e9c <xQueueSemaphoreTake+0x1f8>
					{
						taskENTER_CRITICAL();
 1001e74:	10052700 	call	1005270 <vTaskEnterCritical>
							/* This task blocking on the mutex caused another
							task to inherit this task's priority.  Now this task
							has timed out the priority should be disinherited
							again, but only as low as the next highest priority
							task that is waiting for the same mutex. */
							uxHighestWaitingPriority = prvGetDisinheritPriorityAfterTimeout( pxQueue );
 1001e78:	e13ff917 	ldw	r4,-28(fp)
 1001e7c:	10022cc0 	call	10022cc <prvGetDisinheritPriorityAfterTimeout>
 1001e80:	e0bffb15 	stw	r2,-20(fp)
							vTaskPriorityDisinheritAfterTimeout( pxQueue->u.xSemaphore.xMutexHolder, uxHighestWaitingPriority );
 1001e84:	e0bff917 	ldw	r2,-28(fp)
 1001e88:	10800217 	ldw	r2,8(r2)
 1001e8c:	e17ffb17 	ldw	r5,-20(fp)
 1001e90:	1009883a 	mov	r4,r2
 1001e94:	10051300 	call	1005130 <vTaskPriorityDisinheritAfterTimeout>
						}
						taskEXIT_CRITICAL();
 1001e98:	10052c40 	call	10052c4 <vTaskExitCritical>
					}
				}
				#endif /* configUSE_MUTEXES */

				traceQUEUE_RECEIVE_FAILED( pxQueue );
				return errQUEUE_EMPTY;
 1001e9c:	0005883a 	mov	r2,zero
			{
				mtCOVERAGE_TEST_MARKER();
			}
		}
	} /*lint -restore */
}
 1001ea0:	e037883a 	mov	sp,fp
 1001ea4:	dfc00117 	ldw	ra,4(sp)
 1001ea8:	df000017 	ldw	fp,0(sp)
 1001eac:	dec00204 	addi	sp,sp,8
 1001eb0:	f800283a 	ret

01001eb4 <xQueuePeek>:
/*-----------------------------------------------------------*/

BaseType_t xQueuePeek( QueueHandle_t xQueue, void * const pvBuffer, TickType_t xTicksToWait )
{
 1001eb4:	defff504 	addi	sp,sp,-44
 1001eb8:	dfc00a15 	stw	ra,40(sp)
 1001ebc:	df000915 	stw	fp,36(sp)
 1001ec0:	df000904 	addi	fp,sp,36
 1001ec4:	e13ffd15 	stw	r4,-12(fp)
 1001ec8:	e17ffe15 	stw	r5,-8(fp)
 1001ecc:	e1bfff15 	stw	r6,-4(fp)
BaseType_t xEntryTimeSet = pdFALSE;
 1001ed0:	e03ff715 	stw	zero,-36(fp)
TimeOut_t xTimeOut;
int8_t *pcOriginalReadPosition;
Queue_t * const pxQueue = xQueue;
 1001ed4:	e0bffd17 	ldw	r2,-12(fp)
 1001ed8:	e0bff815 	stw	r2,-32(fp)
	/*lint -save -e904  This function relaxes the coding standard somewhat to
	allow return statements within the function itself.  This is done in the
	interest of execution time efficiency. */
	for( ;; )
	{
		taskENTER_CRITICAL();
 1001edc:	10052700 	call	1005270 <vTaskEnterCritical>
		{
			const UBaseType_t uxMessagesWaiting = pxQueue->uxMessagesWaiting;
 1001ee0:	e0bff817 	ldw	r2,-32(fp)
 1001ee4:	10800e17 	ldw	r2,56(r2)
 1001ee8:	e0bff915 	stw	r2,-28(fp)

			/* Is there data in the queue now?  To be running the calling task
			must be the highest priority task wanting to access the queue. */
			if( uxMessagesWaiting > ( UBaseType_t ) 0 )
 1001eec:	e0bff917 	ldw	r2,-28(fp)
 1001ef0:	10001526 	beq	r2,zero,1001f48 <xQueuePeek+0x94>
			{
				/* Remember the read position so it can be reset after the data
				is read from the queue as this function is only peeking the
				data, not removing it. */
				pcOriginalReadPosition = pxQueue->u.xQueue.pcReadFrom;
 1001ef4:	e0bff817 	ldw	r2,-32(fp)
 1001ef8:	10800317 	ldw	r2,12(r2)
 1001efc:	e0bffa15 	stw	r2,-24(fp)

				prvCopyDataFromQueue( pxQueue, pvBuffer );
 1001f00:	e17ffe17 	ldw	r5,-8(fp)
 1001f04:	e13ff817 	ldw	r4,-32(fp)
 1001f08:	10024a80 	call	10024a8 <prvCopyDataFromQueue>
				traceQUEUE_PEEK( pxQueue );

				/* The data is not being removed, so reset the read pointer. */
				pxQueue->u.xQueue.pcReadFrom = pcOriginalReadPosition;
 1001f0c:	e0bff817 	ldw	r2,-32(fp)
 1001f10:	e0fffa17 	ldw	r3,-24(fp)
 1001f14:	10c00315 	stw	r3,12(r2)

				/* The data is being left in the queue, so see if there are
				any other tasks waiting for the data. */
				if( listLIST_IS_EMPTY( &( pxQueue->xTasksWaitingToReceive ) ) == pdFALSE )
 1001f18:	e0bff817 	ldw	r2,-32(fp)
 1001f1c:	10800917 	ldw	r2,36(r2)
 1001f20:	10000626 	beq	r2,zero,1001f3c <xQueuePeek+0x88>
				{
					if( xTaskRemoveFromEventList( &( pxQueue->xTasksWaitingToReceive ) ) != pdFALSE )
 1001f24:	e0bff817 	ldw	r2,-32(fp)
 1001f28:	10800904 	addi	r2,r2,36
 1001f2c:	1009883a 	mov	r4,r2
 1001f30:	10048d00 	call	10048d0 <xTaskRemoveFromEventList>
 1001f34:	10000126 	beq	r2,zero,1001f3c <xQueuePeek+0x88>
					{
						/* The task waiting has a higher priority than this task. */
						queueYIELD_IF_USING_PREEMPTION();
 1001f38:	003b683a 	trap	0
				else
				{
					mtCOVERAGE_TEST_MARKER();
				}

				taskEXIT_CRITICAL();
 1001f3c:	10052c40 	call	10052c4 <vTaskExitCritical>
				return pdPASS;
 1001f40:	00800044 	movi	r2,1
 1001f44:	00004206 	br	1002050 <xQueuePeek+0x19c>
			}
			else
			{
				if( xTicksToWait == ( TickType_t ) 0 )
 1001f48:	e0bfff17 	ldw	r2,-4(fp)
 1001f4c:	1000031e 	bne	r2,zero,1001f5c <xQueuePeek+0xa8>
				{
					/* The queue was empty and no block time is specified (or
					the block time has expired) so leave now. */
					taskEXIT_CRITICAL();
 1001f50:	10052c40 	call	10052c4 <vTaskExitCritical>
					traceQUEUE_PEEK_FAILED( pxQueue );
					return errQUEUE_EMPTY;
 1001f54:	0005883a 	mov	r2,zero
 1001f58:	00003d06 	br	1002050 <xQueuePeek+0x19c>
				}
				else if( xEntryTimeSet == pdFALSE )
 1001f5c:	e0bff717 	ldw	r2,-36(fp)
 1001f60:	1000051e 	bne	r2,zero,1001f78 <xQueuePeek+0xc4>
				{
					/* The queue was empty and a block time was specified so
					configure the timeout structure ready to enter the blocked
					state. */
					vTaskInternalSetTimeOutState( &xTimeOut );
 1001f64:	e0bffb04 	addi	r2,fp,-20
 1001f68:	1009883a 	mov	r4,r2
 1001f6c:	1004ad80 	call	1004ad8 <vTaskInternalSetTimeOutState>
					xEntryTimeSet = pdTRUE;
 1001f70:	00800044 	movi	r2,1
 1001f74:	e0bff715 	stw	r2,-36(fp)
					/* Entry time was already set. */
					mtCOVERAGE_TEST_MARKER();
				}
			}
		}
		taskEXIT_CRITICAL();
 1001f78:	10052c40 	call	10052c4 <vTaskExitCritical>

		/* Interrupts and other tasks can send to and receive from the queue
		now the critical section has been exited. */

		vTaskSuspendAll();
 1001f7c:	100435c0 	call	100435c <vTaskSuspendAll>
		prvLockQueue( pxQueue );
 1001f80:	10052700 	call	1005270 <vTaskEnterCritical>
 1001f84:	e0bff817 	ldw	r2,-32(fp)
 1001f88:	10801103 	ldbu	r2,68(r2)
 1001f8c:	10803fcc 	andi	r2,r2,255
 1001f90:	1080201c 	xori	r2,r2,128
 1001f94:	10bfe004 	addi	r2,r2,-128
 1001f98:	10bfffd8 	cmpnei	r2,r2,-1
 1001f9c:	1000021e 	bne	r2,zero,1001fa8 <xQueuePeek+0xf4>
 1001fa0:	e0bff817 	ldw	r2,-32(fp)
 1001fa4:	10001105 	stb	zero,68(r2)
 1001fa8:	e0bff817 	ldw	r2,-32(fp)
 1001fac:	10801143 	ldbu	r2,69(r2)
 1001fb0:	10803fcc 	andi	r2,r2,255
 1001fb4:	1080201c 	xori	r2,r2,128
 1001fb8:	10bfe004 	addi	r2,r2,-128
 1001fbc:	10bfffd8 	cmpnei	r2,r2,-1
 1001fc0:	1000021e 	bne	r2,zero,1001fcc <xQueuePeek+0x118>
 1001fc4:	e0bff817 	ldw	r2,-32(fp)
 1001fc8:	10001145 	stb	zero,69(r2)
 1001fcc:	10052c40 	call	10052c4 <vTaskExitCritical>

		/* Update the timeout state to see if it has expired yet. */
		if( xTaskCheckForTimeOut( &xTimeOut, &xTicksToWait ) == pdFALSE )
 1001fd0:	e0ffff04 	addi	r3,fp,-4
 1001fd4:	e0bffb04 	addi	r2,fp,-20
 1001fd8:	180b883a 	mov	r5,r3
 1001fdc:	1009883a 	mov	r4,r2
 1001fe0:	1004b140 	call	1004b14 <xTaskCheckForTimeOut>
 1001fe4:	1000131e 	bne	r2,zero,1002034 <xQueuePeek+0x180>
		{
			/* Timeout has not expired yet, check to see if there is data in the
			queue now, and if not enter the Blocked state to wait for data. */
			if( prvIsQueueEmpty( pxQueue ) != pdFALSE )
 1001fe8:	e13ff817 	ldw	r4,-32(fp)
 1001fec:	10026380 	call	1002638 <prvIsQueueEmpty>
 1001ff0:	10000c26 	beq	r2,zero,1002024 <xQueuePeek+0x170>
			{
				traceBLOCKING_ON_QUEUE_PEEK( pxQueue );
				vTaskPlaceOnEventList( &( pxQueue->xTasksWaitingToReceive ), xTicksToWait );
 1001ff4:	e0bff817 	ldw	r2,-32(fp)
 1001ff8:	10800904 	addi	r2,r2,36
 1001ffc:	e0ffff17 	ldw	r3,-4(fp)
 1002000:	180b883a 	mov	r5,r3
 1002004:	1009883a 	mov	r4,r2
 1002008:	100481c0 	call	100481c <vTaskPlaceOnEventList>
				prvUnlockQueue( pxQueue );
 100200c:	e13ff817 	ldw	r4,-32(fp)
 1002010:	10025440 	call	1002544 <prvUnlockQueue>
				if( xTaskResumeAll() == pdFALSE )
 1002014:	10043880 	call	1004388 <xTaskResumeAll>
 1002018:	103fb01e 	bne	r2,zero,1001edc <__alt_data_end+0xff001edc>
				{
					portYIELD_WITHIN_API();
 100201c:	003b683a 	trap	0
 1002020:	003fae06 	br	1001edc <__alt_data_end+0xff001edc>
			}
			else
			{
				/* There is data in the queue now, so don't enter the blocked
				state, instead return to try and obtain the data. */
				prvUnlockQueue( pxQueue );
 1002024:	e13ff817 	ldw	r4,-32(fp)
 1002028:	10025440 	call	1002544 <prvUnlockQueue>
				( void ) xTaskResumeAll();
 100202c:	10043880 	call	1004388 <xTaskResumeAll>
 1002030:	003faa06 	br	1001edc <__alt_data_end+0xff001edc>
		}
		else
		{
			/* The timeout has expired.  If there is still no data in the queue
			exit, otherwise go back and try to read the data again. */
			prvUnlockQueue( pxQueue );
 1002034:	e13ff817 	ldw	r4,-32(fp)
 1002038:	10025440 	call	1002544 <prvUnlockQueue>
			( void ) xTaskResumeAll();
 100203c:	10043880 	call	1004388 <xTaskResumeAll>

			if( prvIsQueueEmpty( pxQueue ) != pdFALSE )
 1002040:	e13ff817 	ldw	r4,-32(fp)
 1002044:	10026380 	call	1002638 <prvIsQueueEmpty>
 1002048:	103fa426 	beq	r2,zero,1001edc <__alt_data_end+0xff001edc>
			{
				traceQUEUE_PEEK_FAILED( pxQueue );
				return errQUEUE_EMPTY;
 100204c:	0005883a 	mov	r2,zero
			{
				mtCOVERAGE_TEST_MARKER();
			}
		}
	} /*lint -restore */
}
 1002050:	e037883a 	mov	sp,fp
 1002054:	dfc00117 	ldw	ra,4(sp)
 1002058:	df000017 	ldw	fp,0(sp)
 100205c:	dec00204 	addi	sp,sp,8
 1002060:	f800283a 	ret

01002064 <xQueueReceiveFromISR>:
/*-----------------------------------------------------------*/

BaseType_t xQueueReceiveFromISR( QueueHandle_t xQueue, void * const pvBuffer, BaseType_t * const pxHigherPriorityTaskWoken )
{
 1002064:	defff604 	addi	sp,sp,-40
 1002068:	dfc00915 	stw	ra,36(sp)
 100206c:	df000815 	stw	fp,32(sp)
 1002070:	df000804 	addi	fp,sp,32
 1002074:	e13ffd15 	stw	r4,-12(fp)
 1002078:	e17ffe15 	stw	r5,-8(fp)
 100207c:	e1bfff15 	stw	r6,-4(fp)
BaseType_t xReturn;
UBaseType_t uxSavedInterruptStatus;
Queue_t * const pxQueue = xQueue;
 1002080:	e0bffd17 	ldw	r2,-12(fp)
 1002084:	e0bff915 	stw	r2,-28(fp)
	safe API to ensure interrupt entry is as fast and as simple as possible.
	More information (albeit Cortex-M specific) is provided on the following
	link: http://www.freertos.org/RTOS-Cortex-M3-M4.html */
	portASSERT_IF_INTERRUPT_PRIORITY_INVALID();

	uxSavedInterruptStatus = portSET_INTERRUPT_MASK_FROM_ISR();
 1002088:	e03ffa15 	stw	zero,-24(fp)
	{
		const UBaseType_t uxMessagesWaiting = pxQueue->uxMessagesWaiting;
 100208c:	e0bff917 	ldw	r2,-28(fp)
 1002090:	10800e17 	ldw	r2,56(r2)
 1002094:	e0bffb15 	stw	r2,-20(fp)

		/* Cannot block in an ISR, so check there is data available. */
		if( uxMessagesWaiting > ( UBaseType_t ) 0 )
 1002098:	e0bffb17 	ldw	r2,-20(fp)
 100209c:	10002326 	beq	r2,zero,100212c <xQueueReceiveFromISR+0xc8>
		{
			const int8_t cRxLock = pxQueue->cRxLock;
 10020a0:	e0bff917 	ldw	r2,-28(fp)
 10020a4:	10801103 	ldbu	r2,68(r2)
 10020a8:	e0bffc05 	stb	r2,-16(fp)

			traceQUEUE_RECEIVE_FROM_ISR( pxQueue );

			prvCopyDataFromQueue( pxQueue, pvBuffer );
 10020ac:	e17ffe17 	ldw	r5,-8(fp)
 10020b0:	e13ff917 	ldw	r4,-28(fp)
 10020b4:	10024a80 	call	10024a8 <prvCopyDataFromQueue>
			pxQueue->uxMessagesWaiting = uxMessagesWaiting - ( UBaseType_t ) 1;
 10020b8:	e0bffb17 	ldw	r2,-20(fp)
 10020bc:	10ffffc4 	addi	r3,r2,-1
 10020c0:	e0bff917 	ldw	r2,-28(fp)
 10020c4:	10c00e15 	stw	r3,56(r2)

			/* If the queue is locked the event list will not be modified.
			Instead update the lock count so the task that unlocks the queue
			will know that an ISR has removed data while the queue was
			locked. */
			if( cRxLock == queueUNLOCKED )
 10020c8:	e0bffc07 	ldb	r2,-16(fp)
 10020cc:	10bfffd8 	cmpnei	r2,r2,-1
 10020d0:	10000e1e 	bne	r2,zero,100210c <xQueueReceiveFromISR+0xa8>
			{
				if( listLIST_IS_EMPTY( &( pxQueue->xTasksWaitingToSend ) ) == pdFALSE )
 10020d4:	e0bff917 	ldw	r2,-28(fp)
 10020d8:	10800417 	ldw	r2,16(r2)
 10020dc:	10001026 	beq	r2,zero,1002120 <xQueueReceiveFromISR+0xbc>
				{
					if( xTaskRemoveFromEventList( &( pxQueue->xTasksWaitingToSend ) ) != pdFALSE )
 10020e0:	e0bff917 	ldw	r2,-28(fp)
 10020e4:	10800404 	addi	r2,r2,16
 10020e8:	1009883a 	mov	r4,r2
 10020ec:	10048d00 	call	10048d0 <xTaskRemoveFromEventList>
 10020f0:	10000b26 	beq	r2,zero,1002120 <xQueueReceiveFromISR+0xbc>
					{
						/* The task waiting has a higher priority than us so
						force a context switch. */
						if( pxHigherPriorityTaskWoken != NULL )
 10020f4:	e0bfff17 	ldw	r2,-4(fp)
 10020f8:	10000926 	beq	r2,zero,1002120 <xQueueReceiveFromISR+0xbc>
						{
							*pxHigherPriorityTaskWoken = pdTRUE;
 10020fc:	e0bfff17 	ldw	r2,-4(fp)
 1002100:	00c00044 	movi	r3,1
 1002104:	10c00015 	stw	r3,0(r2)
 1002108:	00000506 	br	1002120 <xQueueReceiveFromISR+0xbc>
			}
			else
			{
				/* Increment the lock count so the task that unlocks the queue
				knows that data was removed while it was locked. */
				pxQueue->cRxLock = ( int8_t ) ( cRxLock + 1 );
 100210c:	e0bffc03 	ldbu	r2,-16(fp)
 1002110:	10800044 	addi	r2,r2,1
 1002114:	1007883a 	mov	r3,r2
 1002118:	e0bff917 	ldw	r2,-28(fp)
 100211c:	10c01105 	stb	r3,68(r2)
			}

			xReturn = pdPASS;
 1002120:	00800044 	movi	r2,1
 1002124:	e0bff815 	stw	r2,-32(fp)
 1002128:	00000106 	br	1002130 <xQueueReceiveFromISR+0xcc>
		}
		else
		{
			xReturn = pdFAIL;
 100212c:	e03ff815 	stw	zero,-32(fp)
			traceQUEUE_RECEIVE_FROM_ISR_FAILED( pxQueue );
		}
	}
	portCLEAR_INTERRUPT_MASK_FROM_ISR( uxSavedInterruptStatus );

	return xReturn;
 1002130:	e0bff817 	ldw	r2,-32(fp)
}
 1002134:	e037883a 	mov	sp,fp
 1002138:	dfc00117 	ldw	ra,4(sp)
 100213c:	df000017 	ldw	fp,0(sp)
 1002140:	dec00204 	addi	sp,sp,8
 1002144:	f800283a 	ret

01002148 <xQueuePeekFromISR>:
/*-----------------------------------------------------------*/

BaseType_t xQueuePeekFromISR( QueueHandle_t xQueue,  void * const pvBuffer )
{
 1002148:	defff804 	addi	sp,sp,-32
 100214c:	dfc00715 	stw	ra,28(sp)
 1002150:	df000615 	stw	fp,24(sp)
 1002154:	df000604 	addi	fp,sp,24
 1002158:	e13ffe15 	stw	r4,-8(fp)
 100215c:	e17fff15 	stw	r5,-4(fp)
BaseType_t xReturn;
UBaseType_t uxSavedInterruptStatus;
int8_t *pcOriginalReadPosition;
Queue_t * const pxQueue = xQueue;
 1002160:	e0bffe17 	ldw	r2,-8(fp)
 1002164:	e0bffb15 	stw	r2,-20(fp)
	safe API to ensure interrupt entry is as fast and as simple as possible.
	More information (albeit Cortex-M specific) is provided on the following
	link: http://www.freertos.org/RTOS-Cortex-M3-M4.html */
	portASSERT_IF_INTERRUPT_PRIORITY_INVALID();

	uxSavedInterruptStatus = portSET_INTERRUPT_MASK_FROM_ISR();
 1002168:	e03ffc15 	stw	zero,-16(fp)
	{
		/* Cannot block in an ISR, so check there is data available. */
		if( pxQueue->uxMessagesWaiting > ( UBaseType_t ) 0 )
 100216c:	e0bffb17 	ldw	r2,-20(fp)
 1002170:	10800e17 	ldw	r2,56(r2)
 1002174:	10000c26 	beq	r2,zero,10021a8 <xQueuePeekFromISR+0x60>
		{
			traceQUEUE_PEEK_FROM_ISR( pxQueue );

			/* Remember the read position so it can be reset as nothing is
			actually being removed from the queue. */
			pcOriginalReadPosition = pxQueue->u.xQueue.pcReadFrom;
 1002178:	e0bffb17 	ldw	r2,-20(fp)
 100217c:	10800317 	ldw	r2,12(r2)
 1002180:	e0bffd15 	stw	r2,-12(fp)
			prvCopyDataFromQueue( pxQueue, pvBuffer );
 1002184:	e17fff17 	ldw	r5,-4(fp)
 1002188:	e13ffb17 	ldw	r4,-20(fp)
 100218c:	10024a80 	call	10024a8 <prvCopyDataFromQueue>
			pxQueue->u.xQueue.pcReadFrom = pcOriginalReadPosition;
 1002190:	e0bffb17 	ldw	r2,-20(fp)
 1002194:	e0fffd17 	ldw	r3,-12(fp)
 1002198:	10c00315 	stw	r3,12(r2)

			xReturn = pdPASS;
 100219c:	00800044 	movi	r2,1
 10021a0:	e0bffa15 	stw	r2,-24(fp)
 10021a4:	00000106 	br	10021ac <xQueuePeekFromISR+0x64>
		}
		else
		{
			xReturn = pdFAIL;
 10021a8:	e03ffa15 	stw	zero,-24(fp)
			traceQUEUE_PEEK_FROM_ISR_FAILED( pxQueue );
		}
	}
	portCLEAR_INTERRUPT_MASK_FROM_ISR( uxSavedInterruptStatus );

	return xReturn;
 10021ac:	e0bffa17 	ldw	r2,-24(fp)
}
 10021b0:	e037883a 	mov	sp,fp
 10021b4:	dfc00117 	ldw	ra,4(sp)
 10021b8:	df000017 	ldw	fp,0(sp)
 10021bc:	dec00204 	addi	sp,sp,8
 10021c0:	f800283a 	ret

010021c4 <uxQueueMessagesWaiting>:
/*-----------------------------------------------------------*/

UBaseType_t uxQueueMessagesWaiting( const QueueHandle_t xQueue )
{
 10021c4:	defffc04 	addi	sp,sp,-16
 10021c8:	dfc00315 	stw	ra,12(sp)
 10021cc:	df000215 	stw	fp,8(sp)
 10021d0:	df000204 	addi	fp,sp,8
 10021d4:	e13fff15 	stw	r4,-4(fp)
UBaseType_t uxReturn;

	configASSERT( xQueue );

	taskENTER_CRITICAL();
 10021d8:	10052700 	call	1005270 <vTaskEnterCritical>
	{
		uxReturn = ( ( Queue_t * ) xQueue )->uxMessagesWaiting;
 10021dc:	e0bfff17 	ldw	r2,-4(fp)
 10021e0:	10800e17 	ldw	r2,56(r2)
 10021e4:	e0bffe15 	stw	r2,-8(fp)
	}
	taskEXIT_CRITICAL();
 10021e8:	10052c40 	call	10052c4 <vTaskExitCritical>

	return uxReturn;
 10021ec:	e0bffe17 	ldw	r2,-8(fp)
} /*lint !e818 Pointer cannot be declared const as xQueue is a typedef not pointer. */
 10021f0:	e037883a 	mov	sp,fp
 10021f4:	dfc00117 	ldw	ra,4(sp)
 10021f8:	df000017 	ldw	fp,0(sp)
 10021fc:	dec00204 	addi	sp,sp,8
 1002200:	f800283a 	ret

01002204 <uxQueueSpacesAvailable>:
/*-----------------------------------------------------------*/

UBaseType_t uxQueueSpacesAvailable( const QueueHandle_t xQueue )
{
 1002204:	defffb04 	addi	sp,sp,-20
 1002208:	dfc00415 	stw	ra,16(sp)
 100220c:	df000315 	stw	fp,12(sp)
 1002210:	df000304 	addi	fp,sp,12
 1002214:	e13fff15 	stw	r4,-4(fp)
UBaseType_t uxReturn;
Queue_t * const pxQueue = xQueue;
 1002218:	e0bfff17 	ldw	r2,-4(fp)
 100221c:	e0bffd15 	stw	r2,-12(fp)

	configASSERT( pxQueue );

	taskENTER_CRITICAL();
 1002220:	10052700 	call	1005270 <vTaskEnterCritical>
	{
		uxReturn = pxQueue->uxLength - pxQueue->uxMessagesWaiting;
 1002224:	e0bffd17 	ldw	r2,-12(fp)
 1002228:	10c00f17 	ldw	r3,60(r2)
 100222c:	e0bffd17 	ldw	r2,-12(fp)
 1002230:	10800e17 	ldw	r2,56(r2)
 1002234:	1885c83a 	sub	r2,r3,r2
 1002238:	e0bffe15 	stw	r2,-8(fp)
	}
	taskEXIT_CRITICAL();
 100223c:	10052c40 	call	10052c4 <vTaskExitCritical>

	return uxReturn;
 1002240:	e0bffe17 	ldw	r2,-8(fp)
} /*lint !e818 Pointer cannot be declared const as xQueue is a typedef not pointer. */
 1002244:	e037883a 	mov	sp,fp
 1002248:	dfc00117 	ldw	ra,4(sp)
 100224c:	df000017 	ldw	fp,0(sp)
 1002250:	dec00204 	addi	sp,sp,8
 1002254:	f800283a 	ret

01002258 <uxQueueMessagesWaitingFromISR>:
/*-----------------------------------------------------------*/

UBaseType_t uxQueueMessagesWaitingFromISR( const QueueHandle_t xQueue )
{
 1002258:	defffc04 	addi	sp,sp,-16
 100225c:	df000315 	stw	fp,12(sp)
 1002260:	df000304 	addi	fp,sp,12
 1002264:	e13fff15 	stw	r4,-4(fp)
UBaseType_t uxReturn;
Queue_t * const pxQueue = xQueue;
 1002268:	e0bfff17 	ldw	r2,-4(fp)
 100226c:	e0bffd15 	stw	r2,-12(fp)

	configASSERT( pxQueue );
	uxReturn = pxQueue->uxMessagesWaiting;
 1002270:	e0bffd17 	ldw	r2,-12(fp)
 1002274:	10800e17 	ldw	r2,56(r2)
 1002278:	e0bffe15 	stw	r2,-8(fp)

	return uxReturn;
 100227c:	e0bffe17 	ldw	r2,-8(fp)
} /*lint !e818 Pointer cannot be declared const as xQueue is a typedef not pointer. */
 1002280:	e037883a 	mov	sp,fp
 1002284:	df000017 	ldw	fp,0(sp)
 1002288:	dec00104 	addi	sp,sp,4
 100228c:	f800283a 	ret

01002290 <vQueueDelete>:
/*-----------------------------------------------------------*/

void vQueueDelete( QueueHandle_t xQueue )
{
 1002290:	defffc04 	addi	sp,sp,-16
 1002294:	dfc00315 	stw	ra,12(sp)
 1002298:	df000215 	stw	fp,8(sp)
 100229c:	df000204 	addi	fp,sp,8
 10022a0:	e13fff15 	stw	r4,-4(fp)
Queue_t * const pxQueue = xQueue;
 10022a4:	e0bfff17 	ldw	r2,-4(fp)
 10022a8:	e0bffe15 	stw	r2,-8(fp)

	#if( ( configSUPPORT_DYNAMIC_ALLOCATION == 1 ) && ( configSUPPORT_STATIC_ALLOCATION == 0 ) )
	{
		/* The queue can only have been allocated dynamically - free it
		again. */
		vPortFree( pxQueue );
 10022ac:	e13ffe17 	ldw	r4,-8(fp)
 10022b0:	10011840 	call	1001184 <vPortFree>
		/* The queue must have been statically allocated, so is not going to be
		deleted.  Avoid compiler warnings about the unused parameter. */
		( void ) pxQueue;
	}
	#endif /* configSUPPORT_DYNAMIC_ALLOCATION */
}
 10022b4:	0001883a 	nop
 10022b8:	e037883a 	mov	sp,fp
 10022bc:	dfc00117 	ldw	ra,4(sp)
 10022c0:	df000017 	ldw	fp,0(sp)
 10022c4:	dec00204 	addi	sp,sp,8
 10022c8:	f800283a 	ret

010022cc <prvGetDisinheritPriorityAfterTimeout>:
/*-----------------------------------------------------------*/

#if( configUSE_MUTEXES == 1 )

	static UBaseType_t prvGetDisinheritPriorityAfterTimeout( const Queue_t * const pxQueue )
	{
 10022cc:	defffd04 	addi	sp,sp,-12
 10022d0:	df000215 	stw	fp,8(sp)
 10022d4:	df000204 	addi	fp,sp,8
 10022d8:	e13fff15 	stw	r4,-4(fp)
		priority, but the waiting task times out, then the holder should
		disinherit the priority - but only down to the highest priority of any
		other tasks that are waiting for the same mutex.  For this purpose,
		return the priority of the highest priority task that is waiting for the
		mutex. */
		if( listCURRENT_LIST_LENGTH( &( pxQueue->xTasksWaitingToReceive ) ) > 0U )
 10022dc:	e0bfff17 	ldw	r2,-4(fp)
 10022e0:	10800917 	ldw	r2,36(r2)
 10022e4:	10000726 	beq	r2,zero,1002304 <prvGetDisinheritPriorityAfterTimeout+0x38>
		{
			uxHighestPriorityOfWaitingTasks = ( UBaseType_t ) configMAX_PRIORITIES - ( UBaseType_t ) listGET_ITEM_VALUE_OF_HEAD_ENTRY( &( pxQueue->xTasksWaitingToReceive ) );
 10022e8:	e0bfff17 	ldw	r2,-4(fp)
 10022ec:	10800c17 	ldw	r2,48(r2)
 10022f0:	10800017 	ldw	r2,0(r2)
 10022f4:	00c00144 	movi	r3,5
 10022f8:	1885c83a 	sub	r2,r3,r2
 10022fc:	e0bffe15 	stw	r2,-8(fp)
 1002300:	00000106 	br	1002308 <prvGetDisinheritPriorityAfterTimeout+0x3c>
		}
		else
		{
			uxHighestPriorityOfWaitingTasks = tskIDLE_PRIORITY;
 1002304:	e03ffe15 	stw	zero,-8(fp)
		}

		return uxHighestPriorityOfWaitingTasks;
 1002308:	e0bffe17 	ldw	r2,-8(fp)
	}
 100230c:	e037883a 	mov	sp,fp
 1002310:	df000017 	ldw	fp,0(sp)
 1002314:	dec00104 	addi	sp,sp,4
 1002318:	f800283a 	ret

0100231c <prvCopyDataToQueue>:

#endif /* configUSE_MUTEXES */
/*-----------------------------------------------------------*/

static BaseType_t prvCopyDataToQueue( Queue_t * const pxQueue, const void *pvItemToQueue, const BaseType_t xPosition )
{
 100231c:	defff904 	addi	sp,sp,-28
 1002320:	dfc00615 	stw	ra,24(sp)
 1002324:	df000515 	stw	fp,20(sp)
 1002328:	df000504 	addi	fp,sp,20
 100232c:	e13ffd15 	stw	r4,-12(fp)
 1002330:	e17ffe15 	stw	r5,-8(fp)
 1002334:	e1bfff15 	stw	r6,-4(fp)
BaseType_t xReturn = pdFALSE;
 1002338:	e03ffb15 	stw	zero,-20(fp)
UBaseType_t uxMessagesWaiting;

	/* This function is called from a critical section. */

	uxMessagesWaiting = pxQueue->uxMessagesWaiting;
 100233c:	e0bffd17 	ldw	r2,-12(fp)
 1002340:	10800e17 	ldw	r2,56(r2)
 1002344:	e0bffc15 	stw	r2,-16(fp)

	if( pxQueue->uxItemSize == ( UBaseType_t ) 0 )
 1002348:	e0bffd17 	ldw	r2,-12(fp)
 100234c:	10801017 	ldw	r2,64(r2)
 1002350:	10000b1e 	bne	r2,zero,1002380 <prvCopyDataToQueue+0x64>
	{
		#if ( configUSE_MUTEXES == 1 )
		{
			if( pxQueue->uxQueueType == queueQUEUE_IS_MUTEX )
 1002354:	e0bffd17 	ldw	r2,-12(fp)
 1002358:	10800017 	ldw	r2,0(r2)
 100235c:	1000481e 	bne	r2,zero,1002480 <prvCopyDataToQueue+0x164>
			{
				/* The mutex is no longer being held. */
				xReturn = xTaskPriorityDisinherit( pxQueue->u.xSemaphore.xMutexHolder );
 1002360:	e0bffd17 	ldw	r2,-12(fp)
 1002364:	10800217 	ldw	r2,8(r2)
 1002368:	1009883a 	mov	r4,r2
 100236c:	10050340 	call	1005034 <xTaskPriorityDisinherit>
 1002370:	e0bffb15 	stw	r2,-20(fp)
				pxQueue->u.xSemaphore.xMutexHolder = NULL;
 1002374:	e0bffd17 	ldw	r2,-12(fp)
 1002378:	10000215 	stw	zero,8(r2)
 100237c:	00004006 	br	1002480 <prvCopyDataToQueue+0x164>
				mtCOVERAGE_TEST_MARKER();
			}
		}
		#endif /* configUSE_MUTEXES */
	}
	else if( xPosition == queueSEND_TO_BACK )
 1002380:	e0bfff17 	ldw	r2,-4(fp)
 1002384:	1000191e 	bne	r2,zero,10023ec <prvCopyDataToQueue+0xd0>
	{
		( void ) memcpy( ( void * ) pxQueue->pcWriteTo, pvItemToQueue, ( size_t ) pxQueue->uxItemSize ); /*lint !e961 !e418 !e9087 MISRA exception as the casts are only redundant for some ports, plus previous logic ensures a null pointer can only be passed to memcpy() if the copy size is 0.  Cast to void required by function signature and safe as no alignment requirement and copy length specified in bytes. */
 1002388:	e0bffd17 	ldw	r2,-12(fp)
 100238c:	10c00117 	ldw	r3,4(r2)
 1002390:	e0bffd17 	ldw	r2,-12(fp)
 1002394:	10801017 	ldw	r2,64(r2)
 1002398:	100d883a 	mov	r6,r2
 100239c:	e17ffe17 	ldw	r5,-8(fp)
 10023a0:	1809883a 	mov	r4,r3
 10023a4:	1008d600 	call	1008d60 <memcpy>
		pxQueue->pcWriteTo += pxQueue->uxItemSize; /*lint !e9016 Pointer arithmetic on char types ok, especially in this use case where it is the clearest way of conveying intent. */
 10023a8:	e0bffd17 	ldw	r2,-12(fp)
 10023ac:	10c00117 	ldw	r3,4(r2)
 10023b0:	e0bffd17 	ldw	r2,-12(fp)
 10023b4:	10801017 	ldw	r2,64(r2)
 10023b8:	1887883a 	add	r3,r3,r2
 10023bc:	e0bffd17 	ldw	r2,-12(fp)
 10023c0:	10c00115 	stw	r3,4(r2)
		if( pxQueue->pcWriteTo >= pxQueue->u.xQueue.pcTail ) /*lint !e946 MISRA exception justified as comparison of pointers is the cleanest solution. */
 10023c4:	e0bffd17 	ldw	r2,-12(fp)
 10023c8:	10c00117 	ldw	r3,4(r2)
 10023cc:	e0bffd17 	ldw	r2,-12(fp)
 10023d0:	10800217 	ldw	r2,8(r2)
 10023d4:	18802a36 	bltu	r3,r2,1002480 <prvCopyDataToQueue+0x164>
		{
			pxQueue->pcWriteTo = pxQueue->pcHead;
 10023d8:	e0bffd17 	ldw	r2,-12(fp)
 10023dc:	10c00017 	ldw	r3,0(r2)
 10023e0:	e0bffd17 	ldw	r2,-12(fp)
 10023e4:	10c00115 	stw	r3,4(r2)
 10023e8:	00002506 	br	1002480 <prvCopyDataToQueue+0x164>
			mtCOVERAGE_TEST_MARKER();
		}
	}
	else
	{
		( void ) memcpy( ( void * ) pxQueue->u.xQueue.pcReadFrom, pvItemToQueue, ( size_t ) pxQueue->uxItemSize ); /*lint !e961 !e9087 !e418 MISRA exception as the casts are only redundant for some ports.  Cast to void required by function signature and safe as no alignment requirement and copy length specified in bytes.  Assert checks null pointer only used when length is 0. */
 10023ec:	e0bffd17 	ldw	r2,-12(fp)
 10023f0:	10c00317 	ldw	r3,12(r2)
 10023f4:	e0bffd17 	ldw	r2,-12(fp)
 10023f8:	10801017 	ldw	r2,64(r2)
 10023fc:	100d883a 	mov	r6,r2
 1002400:	e17ffe17 	ldw	r5,-8(fp)
 1002404:	1809883a 	mov	r4,r3
 1002408:	1008d600 	call	1008d60 <memcpy>
		pxQueue->u.xQueue.pcReadFrom -= pxQueue->uxItemSize;
 100240c:	e0bffd17 	ldw	r2,-12(fp)
 1002410:	10c00317 	ldw	r3,12(r2)
 1002414:	e0bffd17 	ldw	r2,-12(fp)
 1002418:	10801017 	ldw	r2,64(r2)
 100241c:	0085c83a 	sub	r2,zero,r2
 1002420:	1887883a 	add	r3,r3,r2
 1002424:	e0bffd17 	ldw	r2,-12(fp)
 1002428:	10c00315 	stw	r3,12(r2)
		if( pxQueue->u.xQueue.pcReadFrom < pxQueue->pcHead ) /*lint !e946 MISRA exception justified as comparison of pointers is the cleanest solution. */
 100242c:	e0bffd17 	ldw	r2,-12(fp)
 1002430:	10c00317 	ldw	r3,12(r2)
 1002434:	e0bffd17 	ldw	r2,-12(fp)
 1002438:	10800017 	ldw	r2,0(r2)
 100243c:	1880082e 	bgeu	r3,r2,1002460 <prvCopyDataToQueue+0x144>
		{
			pxQueue->u.xQueue.pcReadFrom = ( pxQueue->u.xQueue.pcTail - pxQueue->uxItemSize );
 1002440:	e0bffd17 	ldw	r2,-12(fp)
 1002444:	10c00217 	ldw	r3,8(r2)
 1002448:	e0bffd17 	ldw	r2,-12(fp)
 100244c:	10801017 	ldw	r2,64(r2)
 1002450:	0085c83a 	sub	r2,zero,r2
 1002454:	1887883a 	add	r3,r3,r2
 1002458:	e0bffd17 	ldw	r2,-12(fp)
 100245c:	10c00315 	stw	r3,12(r2)
		else
		{
			mtCOVERAGE_TEST_MARKER();
		}

		if( xPosition == queueOVERWRITE )
 1002460:	e0bfff17 	ldw	r2,-4(fp)
 1002464:	10800098 	cmpnei	r2,r2,2
 1002468:	1000051e 	bne	r2,zero,1002480 <prvCopyDataToQueue+0x164>
		{
			if( uxMessagesWaiting > ( UBaseType_t ) 0 )
 100246c:	e0bffc17 	ldw	r2,-16(fp)
 1002470:	10000326 	beq	r2,zero,1002480 <prvCopyDataToQueue+0x164>
			{
				/* An item is not being added but overwritten, so subtract
				one from the recorded number of items in the queue so when
				one is added again below the number of recorded items remains
				correct. */
				--uxMessagesWaiting;
 1002474:	e0bffc17 	ldw	r2,-16(fp)
 1002478:	10bfffc4 	addi	r2,r2,-1
 100247c:	e0bffc15 	stw	r2,-16(fp)
		{
			mtCOVERAGE_TEST_MARKER();
		}
	}

	pxQueue->uxMessagesWaiting = uxMessagesWaiting + ( UBaseType_t ) 1;
 1002480:	e0bffc17 	ldw	r2,-16(fp)
 1002484:	10c00044 	addi	r3,r2,1
 1002488:	e0bffd17 	ldw	r2,-12(fp)
 100248c:	10c00e15 	stw	r3,56(r2)

	return xReturn;
 1002490:	e0bffb17 	ldw	r2,-20(fp)
}
 1002494:	e037883a 	mov	sp,fp
 1002498:	dfc00117 	ldw	ra,4(sp)
 100249c:	df000017 	ldw	fp,0(sp)
 10024a0:	dec00204 	addi	sp,sp,8
 10024a4:	f800283a 	ret

010024a8 <prvCopyDataFromQueue>:
/*-----------------------------------------------------------*/

static void prvCopyDataFromQueue( Queue_t * const pxQueue, void * const pvBuffer )
{
 10024a8:	defffc04 	addi	sp,sp,-16
 10024ac:	dfc00315 	stw	ra,12(sp)
 10024b0:	df000215 	stw	fp,8(sp)
 10024b4:	df000204 	addi	fp,sp,8
 10024b8:	e13ffe15 	stw	r4,-8(fp)
 10024bc:	e17fff15 	stw	r5,-4(fp)
	if( pxQueue->uxItemSize != ( UBaseType_t ) 0 )
 10024c0:	e0bffe17 	ldw	r2,-8(fp)
 10024c4:	10801017 	ldw	r2,64(r2)
 10024c8:	10001826 	beq	r2,zero,100252c <prvCopyDataFromQueue+0x84>
	{
		pxQueue->u.xQueue.pcReadFrom += pxQueue->uxItemSize; /*lint !e9016 Pointer arithmetic on char types ok, especially in this use case where it is the clearest way of conveying intent. */
 10024cc:	e0bffe17 	ldw	r2,-8(fp)
 10024d0:	10c00317 	ldw	r3,12(r2)
 10024d4:	e0bffe17 	ldw	r2,-8(fp)
 10024d8:	10801017 	ldw	r2,64(r2)
 10024dc:	1887883a 	add	r3,r3,r2
 10024e0:	e0bffe17 	ldw	r2,-8(fp)
 10024e4:	10c00315 	stw	r3,12(r2)
		if( pxQueue->u.xQueue.pcReadFrom >= pxQueue->u.xQueue.pcTail ) /*lint !e946 MISRA exception justified as use of the relational operator is the cleanest solutions. */
 10024e8:	e0bffe17 	ldw	r2,-8(fp)
 10024ec:	10c00317 	ldw	r3,12(r2)
 10024f0:	e0bffe17 	ldw	r2,-8(fp)
 10024f4:	10800217 	ldw	r2,8(r2)
 10024f8:	18800436 	bltu	r3,r2,100250c <prvCopyDataFromQueue+0x64>
		{
			pxQueue->u.xQueue.pcReadFrom = pxQueue->pcHead;
 10024fc:	e0bffe17 	ldw	r2,-8(fp)
 1002500:	10c00017 	ldw	r3,0(r2)
 1002504:	e0bffe17 	ldw	r2,-8(fp)
 1002508:	10c00315 	stw	r3,12(r2)
		}
		else
		{
			mtCOVERAGE_TEST_MARKER();
		}
		( void ) memcpy( ( void * ) pvBuffer, ( void * ) pxQueue->u.xQueue.pcReadFrom, ( size_t ) pxQueue->uxItemSize ); /*lint !e961 !e418 !e9087 MISRA exception as the casts are only redundant for some ports.  Also previous logic ensures a null pointer can only be passed to memcpy() when the count is 0.  Cast to void required by function signature and safe as no alignment requirement and copy length specified in bytes. */
 100250c:	e0bffe17 	ldw	r2,-8(fp)
 1002510:	10c00317 	ldw	r3,12(r2)
 1002514:	e0bffe17 	ldw	r2,-8(fp)
 1002518:	10801017 	ldw	r2,64(r2)
 100251c:	100d883a 	mov	r6,r2
 1002520:	180b883a 	mov	r5,r3
 1002524:	e13fff17 	ldw	r4,-4(fp)
 1002528:	1008d600 	call	1008d60 <memcpy>
	}
}
 100252c:	0001883a 	nop
 1002530:	e037883a 	mov	sp,fp
 1002534:	dfc00117 	ldw	ra,4(sp)
 1002538:	df000017 	ldw	fp,0(sp)
 100253c:	dec00204 	addi	sp,sp,8
 1002540:	f800283a 	ret

01002544 <prvUnlockQueue>:
/*-----------------------------------------------------------*/

static void prvUnlockQueue( Queue_t * const pxQueue )
{
 1002544:	defffc04 	addi	sp,sp,-16
 1002548:	dfc00315 	stw	ra,12(sp)
 100254c:	df000215 	stw	fp,8(sp)
 1002550:	df000204 	addi	fp,sp,8
 1002554:	e13fff15 	stw	r4,-4(fp)

	/* The lock counts contains the number of extra data items placed or
	removed from the queue while the queue was locked.  When a queue is
	locked items can be added or removed, but the event lists cannot be
	updated. */
	taskENTER_CRITICAL();
 1002558:	10052700 	call	1005270 <vTaskEnterCritical>
	{
		int8_t cTxLock = pxQueue->cTxLock;
 100255c:	e0bfff17 	ldw	r2,-4(fp)
 1002560:	10801143 	ldbu	r2,69(r2)
 1002564:	e0bffe05 	stb	r2,-8(fp)

		/* See if data was added to the queue while it was locked. */
		while( cTxLock > queueLOCKED_UNMODIFIED )
 1002568:	00000c06 	br	100259c <prvUnlockQueue+0x58>
			}
			#else /* configUSE_QUEUE_SETS */
			{
				/* Tasks that are removed from the event list will get added to
				the pending ready list as the scheduler is still suspended. */
				if( listLIST_IS_EMPTY( &( pxQueue->xTasksWaitingToReceive ) ) == pdFALSE )
 100256c:	e0bfff17 	ldw	r2,-4(fp)
 1002570:	10800917 	ldw	r2,36(r2)
 1002574:	10000c26 	beq	r2,zero,10025a8 <prvUnlockQueue+0x64>
				{
					if( xTaskRemoveFromEventList( &( pxQueue->xTasksWaitingToReceive ) ) != pdFALSE )
 1002578:	e0bfff17 	ldw	r2,-4(fp)
 100257c:	10800904 	addi	r2,r2,36
 1002580:	1009883a 	mov	r4,r2
 1002584:	10048d00 	call	10048d0 <xTaskRemoveFromEventList>
 1002588:	10000126 	beq	r2,zero,1002590 <prvUnlockQueue+0x4c>
					{
						/* The task waiting has a higher priority so record that
						a context switch is required. */
						vTaskMissedYield();
 100258c:	1004bf40 	call	1004bf4 <vTaskMissedYield>
					break;
				}
			}
			#endif /* configUSE_QUEUE_SETS */

			--cTxLock;
 1002590:	e0bffe03 	ldbu	r2,-8(fp)
 1002594:	10bfffc4 	addi	r2,r2,-1
 1002598:	e0bffe05 	stb	r2,-8(fp)
	taskENTER_CRITICAL();
	{
		int8_t cTxLock = pxQueue->cTxLock;

		/* See if data was added to the queue while it was locked. */
		while( cTxLock > queueLOCKED_UNMODIFIED )
 100259c:	e0bffe07 	ldb	r2,-8(fp)
 10025a0:	00bff216 	blt	zero,r2,100256c <__alt_data_end+0xff00256c>
 10025a4:	00000106 	br	10025ac <prvUnlockQueue+0x68>
						mtCOVERAGE_TEST_MARKER();
					}
				}
				else
				{
					break;
 10025a8:	0001883a 	nop
			#endif /* configUSE_QUEUE_SETS */

			--cTxLock;
		}

		pxQueue->cTxLock = queueUNLOCKED;
 10025ac:	e0bfff17 	ldw	r2,-4(fp)
 10025b0:	00ffffc4 	movi	r3,-1
 10025b4:	10c01145 	stb	r3,69(r2)
	}
	taskEXIT_CRITICAL();
 10025b8:	10052c40 	call	10052c4 <vTaskExitCritical>

	/* Do the same for the Rx lock. */
	taskENTER_CRITICAL();
 10025bc:	10052700 	call	1005270 <vTaskEnterCritical>
	{
		int8_t cRxLock = pxQueue->cRxLock;
 10025c0:	e0bfff17 	ldw	r2,-4(fp)
 10025c4:	10801103 	ldbu	r2,68(r2)
 10025c8:	e0bffe45 	stb	r2,-7(fp)

		while( cRxLock > queueLOCKED_UNMODIFIED )
 10025cc:	00000c06 	br	1002600 <prvUnlockQueue+0xbc>
		{
			if( listLIST_IS_EMPTY( &( pxQueue->xTasksWaitingToSend ) ) == pdFALSE )
 10025d0:	e0bfff17 	ldw	r2,-4(fp)
 10025d4:	10800417 	ldw	r2,16(r2)
 10025d8:	10000c26 	beq	r2,zero,100260c <prvUnlockQueue+0xc8>
			{
				if( xTaskRemoveFromEventList( &( pxQueue->xTasksWaitingToSend ) ) != pdFALSE )
 10025dc:	e0bfff17 	ldw	r2,-4(fp)
 10025e0:	10800404 	addi	r2,r2,16
 10025e4:	1009883a 	mov	r4,r2
 10025e8:	10048d00 	call	10048d0 <xTaskRemoveFromEventList>
 10025ec:	10000126 	beq	r2,zero,10025f4 <prvUnlockQueue+0xb0>
				{
					vTaskMissedYield();
 10025f0:	1004bf40 	call	1004bf4 <vTaskMissedYield>
				else
				{
					mtCOVERAGE_TEST_MARKER();
				}

				--cRxLock;
 10025f4:	e0bffe43 	ldbu	r2,-7(fp)
 10025f8:	10bfffc4 	addi	r2,r2,-1
 10025fc:	e0bffe45 	stb	r2,-7(fp)
	/* Do the same for the Rx lock. */
	taskENTER_CRITICAL();
	{
		int8_t cRxLock = pxQueue->cRxLock;

		while( cRxLock > queueLOCKED_UNMODIFIED )
 1002600:	e0bffe47 	ldb	r2,-7(fp)
 1002604:	00bff216 	blt	zero,r2,10025d0 <__alt_data_end+0xff0025d0>
 1002608:	00000106 	br	1002610 <prvUnlockQueue+0xcc>

				--cRxLock;
			}
			else
			{
				break;
 100260c:	0001883a 	nop
			}
		}

		pxQueue->cRxLock = queueUNLOCKED;
 1002610:	e0bfff17 	ldw	r2,-4(fp)
 1002614:	00ffffc4 	movi	r3,-1
 1002618:	10c01105 	stb	r3,68(r2)
	}
	taskEXIT_CRITICAL();
 100261c:	10052c40 	call	10052c4 <vTaskExitCritical>
}
 1002620:	0001883a 	nop
 1002624:	e037883a 	mov	sp,fp
 1002628:	dfc00117 	ldw	ra,4(sp)
 100262c:	df000017 	ldw	fp,0(sp)
 1002630:	dec00204 	addi	sp,sp,8
 1002634:	f800283a 	ret

01002638 <prvIsQueueEmpty>:
/*-----------------------------------------------------------*/

static BaseType_t prvIsQueueEmpty( const Queue_t *pxQueue )
{
 1002638:	defffc04 	addi	sp,sp,-16
 100263c:	dfc00315 	stw	ra,12(sp)
 1002640:	df000215 	stw	fp,8(sp)
 1002644:	df000204 	addi	fp,sp,8
 1002648:	e13fff15 	stw	r4,-4(fp)
BaseType_t xReturn;

	taskENTER_CRITICAL();
 100264c:	10052700 	call	1005270 <vTaskEnterCritical>
	{
		if( pxQueue->uxMessagesWaiting == ( UBaseType_t )  0 )
 1002650:	e0bfff17 	ldw	r2,-4(fp)
 1002654:	10800e17 	ldw	r2,56(r2)
 1002658:	1000031e 	bne	r2,zero,1002668 <prvIsQueueEmpty+0x30>
		{
			xReturn = pdTRUE;
 100265c:	00800044 	movi	r2,1
 1002660:	e0bffe15 	stw	r2,-8(fp)
 1002664:	00000106 	br	100266c <prvIsQueueEmpty+0x34>
		}
		else
		{
			xReturn = pdFALSE;
 1002668:	e03ffe15 	stw	zero,-8(fp)
		}
	}
	taskEXIT_CRITICAL();
 100266c:	10052c40 	call	10052c4 <vTaskExitCritical>

	return xReturn;
 1002670:	e0bffe17 	ldw	r2,-8(fp)
}
 1002674:	e037883a 	mov	sp,fp
 1002678:	dfc00117 	ldw	ra,4(sp)
 100267c:	df000017 	ldw	fp,0(sp)
 1002680:	dec00204 	addi	sp,sp,8
 1002684:	f800283a 	ret

01002688 <xQueueIsQueueEmptyFromISR>:
/*-----------------------------------------------------------*/

BaseType_t xQueueIsQueueEmptyFromISR( const QueueHandle_t xQueue )
{
 1002688:	defffc04 	addi	sp,sp,-16
 100268c:	df000315 	stw	fp,12(sp)
 1002690:	df000304 	addi	fp,sp,12
 1002694:	e13fff15 	stw	r4,-4(fp)
BaseType_t xReturn;
Queue_t * const pxQueue = xQueue;
 1002698:	e0bfff17 	ldw	r2,-4(fp)
 100269c:	e0bffe15 	stw	r2,-8(fp)

	configASSERT( pxQueue );
	if( pxQueue->uxMessagesWaiting == ( UBaseType_t ) 0 )
 10026a0:	e0bffe17 	ldw	r2,-8(fp)
 10026a4:	10800e17 	ldw	r2,56(r2)
 10026a8:	1000031e 	bne	r2,zero,10026b8 <xQueueIsQueueEmptyFromISR+0x30>
	{
		xReturn = pdTRUE;
 10026ac:	00800044 	movi	r2,1
 10026b0:	e0bffd15 	stw	r2,-12(fp)
 10026b4:	00000106 	br	10026bc <xQueueIsQueueEmptyFromISR+0x34>
	}
	else
	{
		xReturn = pdFALSE;
 10026b8:	e03ffd15 	stw	zero,-12(fp)
	}

	return xReturn;
 10026bc:	e0bffd17 	ldw	r2,-12(fp)
} /*lint !e818 xQueue could not be pointer to const because it is a typedef. */
 10026c0:	e037883a 	mov	sp,fp
 10026c4:	df000017 	ldw	fp,0(sp)
 10026c8:	dec00104 	addi	sp,sp,4
 10026cc:	f800283a 	ret

010026d0 <prvIsQueueFull>:
/*-----------------------------------------------------------*/

static BaseType_t prvIsQueueFull( const Queue_t *pxQueue )
{
 10026d0:	defffc04 	addi	sp,sp,-16
 10026d4:	dfc00315 	stw	ra,12(sp)
 10026d8:	df000215 	stw	fp,8(sp)
 10026dc:	df000204 	addi	fp,sp,8
 10026e0:	e13fff15 	stw	r4,-4(fp)
BaseType_t xReturn;

	taskENTER_CRITICAL();
 10026e4:	10052700 	call	1005270 <vTaskEnterCritical>
	{
		if( pxQueue->uxMessagesWaiting == pxQueue->uxLength )
 10026e8:	e0bfff17 	ldw	r2,-4(fp)
 10026ec:	10c00e17 	ldw	r3,56(r2)
 10026f0:	e0bfff17 	ldw	r2,-4(fp)
 10026f4:	10800f17 	ldw	r2,60(r2)
 10026f8:	1880031e 	bne	r3,r2,1002708 <prvIsQueueFull+0x38>
		{
			xReturn = pdTRUE;
 10026fc:	00800044 	movi	r2,1
 1002700:	e0bffe15 	stw	r2,-8(fp)
 1002704:	00000106 	br	100270c <prvIsQueueFull+0x3c>
		}
		else
		{
			xReturn = pdFALSE;
 1002708:	e03ffe15 	stw	zero,-8(fp)
		}
	}
	taskEXIT_CRITICAL();
 100270c:	10052c40 	call	10052c4 <vTaskExitCritical>

	return xReturn;
 1002710:	e0bffe17 	ldw	r2,-8(fp)
}
 1002714:	e037883a 	mov	sp,fp
 1002718:	dfc00117 	ldw	ra,4(sp)
 100271c:	df000017 	ldw	fp,0(sp)
 1002720:	dec00204 	addi	sp,sp,8
 1002724:	f800283a 	ret

01002728 <xQueueIsQueueFullFromISR>:
/*-----------------------------------------------------------*/

BaseType_t xQueueIsQueueFullFromISR( const QueueHandle_t xQueue )
{
 1002728:	defffc04 	addi	sp,sp,-16
 100272c:	df000315 	stw	fp,12(sp)
 1002730:	df000304 	addi	fp,sp,12
 1002734:	e13fff15 	stw	r4,-4(fp)
BaseType_t xReturn;
Queue_t * const pxQueue = xQueue;
 1002738:	e0bfff17 	ldw	r2,-4(fp)
 100273c:	e0bffe15 	stw	r2,-8(fp)

	configASSERT( pxQueue );
	if( pxQueue->uxMessagesWaiting == pxQueue->uxLength )
 1002740:	e0bffe17 	ldw	r2,-8(fp)
 1002744:	10c00e17 	ldw	r3,56(r2)
 1002748:	e0bffe17 	ldw	r2,-8(fp)
 100274c:	10800f17 	ldw	r2,60(r2)
 1002750:	1880031e 	bne	r3,r2,1002760 <xQueueIsQueueFullFromISR+0x38>
	{
		xReturn = pdTRUE;
 1002754:	00800044 	movi	r2,1
 1002758:	e0bffd15 	stw	r2,-12(fp)
 100275c:	00000106 	br	1002764 <xQueueIsQueueFullFromISR+0x3c>
	}
	else
	{
		xReturn = pdFALSE;
 1002760:	e03ffd15 	stw	zero,-12(fp)
	}

	return xReturn;
 1002764:	e0bffd17 	ldw	r2,-12(fp)
} /*lint !e818 xQueue could not be pointer to const because it is a typedef. */
 1002768:	e037883a 	mov	sp,fp
 100276c:	df000017 	ldw	fp,0(sp)
 1002770:	dec00104 	addi	sp,sp,4
 1002774:	f800283a 	ret

01002778 <xStreamBufferGenericCreate>:
/*-----------------------------------------------------------*/

#if( configSUPPORT_DYNAMIC_ALLOCATION == 1 )

	StreamBufferHandle_t xStreamBufferGenericCreate( size_t xBufferSizeBytes, size_t xTriggerLevelBytes, BaseType_t xIsMessageBuffer )
	{
 1002778:	defff804 	addi	sp,sp,-32
 100277c:	dfc00715 	stw	ra,28(sp)
 1002780:	df000615 	stw	fp,24(sp)
 1002784:	df000604 	addi	fp,sp,24
 1002788:	e13ffd15 	stw	r4,-12(fp)
 100278c:	e17ffe15 	stw	r5,-8(fp)
 1002790:	e1bfff15 	stw	r6,-4(fp)

		/* In case the stream buffer is going to be used as a message buffer
		(that is, it will hold discrete messages with a little meta data that
		says how big the next message is) check the buffer will be large enough
		to hold at least one message. */
		if( xIsMessageBuffer == pdTRUE )
 1002794:	e0bfff17 	ldw	r2,-4(fp)
 1002798:	10800058 	cmpnei	r2,r2,1
 100279c:	1000031e 	bne	r2,zero,10027ac <xStreamBufferGenericCreate+0x34>
		{
			/* Is a message buffer but not statically allocated. */
			ucFlags = sbFLAGS_IS_MESSAGE_BUFFER;
 10027a0:	00800044 	movi	r2,1
 10027a4:	e0bffb05 	stb	r2,-20(fp)
 10027a8:	00000106 	br	10027b0 <xStreamBufferGenericCreate+0x38>
			configASSERT( xBufferSizeBytes > sbBYTES_TO_STORE_MESSAGE_LENGTH );
		}
		else
		{
			/* Not a message buffer and not statically allocated. */
			ucFlags = 0;
 10027ac:	e03ffb05 	stb	zero,-20(fp)
		}
		configASSERT( xTriggerLevelBytes <= xBufferSizeBytes );

		/* A trigger level of 0 would cause a waiting task to unblock even when
		the buffer was empty. */
		if( xTriggerLevelBytes == ( size_t ) 0 )
 10027b0:	e0bffe17 	ldw	r2,-8(fp)
 10027b4:	1000021e 	bne	r2,zero,10027c0 <xStreamBufferGenericCreate+0x48>
		{
			xTriggerLevelBytes = ( size_t ) 1;
 10027b8:	00800044 	movi	r2,1
 10027bc:	e0bffe15 	stw	r2,-8(fp)
		and the buffer follows immediately after.  The requested size is
		incremented so the free space is returned as the user would expect -
		this is a quirk of the implementation that means otherwise the free
		space would be reported as one byte smaller than would be logically
		expected. */
		xBufferSizeBytes++;
 10027c0:	e0bffd17 	ldw	r2,-12(fp)
 10027c4:	10800044 	addi	r2,r2,1
 10027c8:	e0bffd15 	stw	r2,-12(fp)
		pucAllocatedMemory = ( uint8_t * ) pvPortMalloc( xBufferSizeBytes + sizeof( StreamBuffer_t ) ); /*lint !e9079 malloc() only returns void*. */
 10027cc:	e0bffd17 	ldw	r2,-12(fp)
 10027d0:	10800804 	addi	r2,r2,32
 10027d4:	1009883a 	mov	r4,r2
 10027d8:	1000fb00 	call	1000fb0 <pvPortMalloc>
 10027dc:	e0bffc15 	stw	r2,-16(fp)

		if( pucAllocatedMemory != NULL )
 10027e0:	e0bffc17 	ldw	r2,-16(fp)
 10027e4:	10000926 	beq	r2,zero,100280c <xStreamBufferGenericCreate+0x94>
		{
			prvInitialiseNewStreamBuffer( ( StreamBuffer_t * ) pucAllocatedMemory, /* Structure at the start of the allocated memory. */ /*lint !e9087 Safe cast as allocated memory is aligned. */ /*lint !e826 Area is not too small and alignment is guaranteed provided malloc() behaves as expected and returns aligned buffer. */
 10027e8:	e0bffc17 	ldw	r2,-16(fp)
 10027ec:	10c00804 	addi	r3,r2,32
 10027f0:	e0bffb03 	ldbu	r2,-20(fp)
 10027f4:	d8800015 	stw	r2,0(sp)
 10027f8:	e1fffe17 	ldw	r7,-8(fp)
 10027fc:	e1bffd17 	ldw	r6,-12(fp)
 1002800:	180b883a 	mov	r5,r3
 1002804:	e13ffc17 	ldw	r4,-16(fp)
 1002808:	100359c0 	call	100359c <prvInitialiseNewStreamBuffer>
		else
		{
			traceSTREAM_BUFFER_CREATE_FAILED( xIsMessageBuffer );
		}

		return ( StreamBufferHandle_t ) pucAllocatedMemory; /*lint !e9087 !e826 Safe cast as allocated memory is aligned. */
 100280c:	e0bffc17 	ldw	r2,-16(fp)
	}
 1002810:	e037883a 	mov	sp,fp
 1002814:	dfc00117 	ldw	ra,4(sp)
 1002818:	df000017 	ldw	fp,0(sp)
 100281c:	dec00204 	addi	sp,sp,8
 1002820:	f800283a 	ret

01002824 <vStreamBufferDelete>:

#endif /* ( configSUPPORT_STATIC_ALLOCATION == 1 ) */
/*-----------------------------------------------------------*/

void vStreamBufferDelete( StreamBufferHandle_t xStreamBuffer )
{
 1002824:	defffc04 	addi	sp,sp,-16
 1002828:	dfc00315 	stw	ra,12(sp)
 100282c:	df000215 	stw	fp,8(sp)
 1002830:	df000204 	addi	fp,sp,8
 1002834:	e13fff15 	stw	r4,-4(fp)
StreamBuffer_t * pxStreamBuffer = xStreamBuffer;
 1002838:	e0bfff17 	ldw	r2,-4(fp)
 100283c:	e0bffe15 	stw	r2,-8(fp)

	configASSERT( pxStreamBuffer );

	traceSTREAM_BUFFER_DELETE( xStreamBuffer );

	if( ( pxStreamBuffer->ucFlags & sbFLAGS_IS_STATICALLY_ALLOCATED ) == ( uint8_t ) pdFALSE )
 1002840:	e0bffe17 	ldw	r2,-8(fp)
 1002844:	10800703 	ldbu	r2,28(r2)
 1002848:	10803fcc 	andi	r2,r2,255
 100284c:	1080008c 	andi	r2,r2,2
 1002850:	1000031e 	bne	r2,zero,1002860 <vStreamBufferDelete+0x3c>
	{
		#if( configSUPPORT_DYNAMIC_ALLOCATION == 1 )
		{
			/* Both the structure and the buffer were allocated using a single call
			to pvPortMalloc(), hence only one call to vPortFree() is required. */
			vPortFree( ( void * ) pxStreamBuffer ); /*lint !e9087 Standard free() semantics require void *, plus pxStreamBuffer was allocated by pvPortMalloc(). */
 1002854:	e13ffe17 	ldw	r4,-8(fp)
 1002858:	10011840 	call	1001184 <vPortFree>
	{
		/* The structure and buffer were not allocated dynamically and cannot be
		freed - just scrub the structure so future use will assert. */
		( void ) memset( pxStreamBuffer, 0x00, sizeof( StreamBuffer_t ) );
	}
}
 100285c:	00000406 	br	1002870 <vStreamBufferDelete+0x4c>
	}
	else
	{
		/* The structure and buffer were not allocated dynamically and cannot be
		freed - just scrub the structure so future use will assert. */
		( void ) memset( pxStreamBuffer, 0x00, sizeof( StreamBuffer_t ) );
 1002860:	01800804 	movi	r6,32
 1002864:	000b883a 	mov	r5,zero
 1002868:	e13ffe17 	ldw	r4,-8(fp)
 100286c:	1008ea80 	call	1008ea8 <memset>
	}
}
 1002870:	0001883a 	nop
 1002874:	e037883a 	mov	sp,fp
 1002878:	dfc00117 	ldw	ra,4(sp)
 100287c:	df000017 	ldw	fp,0(sp)
 1002880:	dec00204 	addi	sp,sp,8
 1002884:	f800283a 	ret

01002888 <xStreamBufferReset>:
/*-----------------------------------------------------------*/

BaseType_t xStreamBufferReset( StreamBufferHandle_t xStreamBuffer )
{
 1002888:	defffa04 	addi	sp,sp,-24
 100288c:	dfc00515 	stw	ra,20(sp)
 1002890:	df000415 	stw	fp,16(sp)
 1002894:	df000404 	addi	fp,sp,16
 1002898:	e13fff15 	stw	r4,-4(fp)
StreamBuffer_t * const pxStreamBuffer = xStreamBuffer;
 100289c:	e0bfff17 	ldw	r2,-4(fp)
 10028a0:	e0bffe15 	stw	r2,-8(fp)
BaseType_t xReturn = pdFAIL;
 10028a4:	e03ffd15 	stw	zero,-12(fp)
		uxStreamBufferNumber = pxStreamBuffer->uxStreamBufferNumber;
	}
	#endif

	/* Can only reset a message buffer if there are no tasks blocked on it. */
	taskENTER_CRITICAL();
 10028a8:	10052700 	call	1005270 <vTaskEnterCritical>
	{
		if( pxStreamBuffer->xTaskWaitingToReceive == NULL )
 10028ac:	e0bffe17 	ldw	r2,-8(fp)
 10028b0:	10800417 	ldw	r2,16(r2)
 10028b4:	1000141e 	bne	r2,zero,1002908 <xStreamBufferReset+0x80>
		{
			if( pxStreamBuffer->xTaskWaitingToSend == NULL )
 10028b8:	e0bffe17 	ldw	r2,-8(fp)
 10028bc:	10800517 	ldw	r2,20(r2)
 10028c0:	1000111e 	bne	r2,zero,1002908 <xStreamBufferReset+0x80>
			{
				prvInitialiseNewStreamBuffer( pxStreamBuffer,
 10028c4:	e0bffe17 	ldw	r2,-8(fp)
 10028c8:	10c00617 	ldw	r3,24(r2)
 10028cc:	e0bffe17 	ldw	r2,-8(fp)
 10028d0:	11000217 	ldw	r4,8(r2)
 10028d4:	e0bffe17 	ldw	r2,-8(fp)
 10028d8:	11400317 	ldw	r5,12(r2)
											  pxStreamBuffer->pucBuffer,
											  pxStreamBuffer->xLength,
											  pxStreamBuffer->xTriggerLevelBytes,
											  pxStreamBuffer->ucFlags );
 10028dc:	e0bffe17 	ldw	r2,-8(fp)
 10028e0:	10800703 	ldbu	r2,28(r2)
	{
		if( pxStreamBuffer->xTaskWaitingToReceive == NULL )
		{
			if( pxStreamBuffer->xTaskWaitingToSend == NULL )
			{
				prvInitialiseNewStreamBuffer( pxStreamBuffer,
 10028e4:	10803fcc 	andi	r2,r2,255
 10028e8:	d8800015 	stw	r2,0(sp)
 10028ec:	280f883a 	mov	r7,r5
 10028f0:	200d883a 	mov	r6,r4
 10028f4:	180b883a 	mov	r5,r3
 10028f8:	e13ffe17 	ldw	r4,-8(fp)
 10028fc:	100359c0 	call	100359c <prvInitialiseNewStreamBuffer>
											  pxStreamBuffer->pucBuffer,
											  pxStreamBuffer->xLength,
											  pxStreamBuffer->xTriggerLevelBytes,
											  pxStreamBuffer->ucFlags );
				xReturn = pdPASS;
 1002900:	00800044 	movi	r2,1
 1002904:	e0bffd15 	stw	r2,-12(fp)

				traceSTREAM_BUFFER_RESET( xStreamBuffer );
			}
		}
	}
	taskEXIT_CRITICAL();
 1002908:	10052c40 	call	10052c4 <vTaskExitCritical>

	return xReturn;
 100290c:	e0bffd17 	ldw	r2,-12(fp)
}
 1002910:	e037883a 	mov	sp,fp
 1002914:	dfc00117 	ldw	ra,4(sp)
 1002918:	df000017 	ldw	fp,0(sp)
 100291c:	dec00204 	addi	sp,sp,8
 1002920:	f800283a 	ret

01002924 <xStreamBufferSetTriggerLevel>:
/*-----------------------------------------------------------*/

BaseType_t xStreamBufferSetTriggerLevel( StreamBufferHandle_t xStreamBuffer, size_t xTriggerLevel )
{
 1002924:	defffb04 	addi	sp,sp,-20
 1002928:	df000415 	stw	fp,16(sp)
 100292c:	df000404 	addi	fp,sp,16
 1002930:	e13ffe15 	stw	r4,-8(fp)
 1002934:	e17fff15 	stw	r5,-4(fp)
StreamBuffer_t * const pxStreamBuffer = xStreamBuffer;
 1002938:	e0bffe17 	ldw	r2,-8(fp)
 100293c:	e0bffd15 	stw	r2,-12(fp)
BaseType_t xReturn;

	configASSERT( pxStreamBuffer );

	/* It is not valid for the trigger level to be 0. */
	if( xTriggerLevel == ( size_t ) 0 )
 1002940:	e0bfff17 	ldw	r2,-4(fp)
 1002944:	1000021e 	bne	r2,zero,1002950 <xStreamBufferSetTriggerLevel+0x2c>
	{
		xTriggerLevel = ( size_t ) 1;
 1002948:	00800044 	movi	r2,1
 100294c:	e0bfff15 	stw	r2,-4(fp)
	}

	/* The trigger level is the number of bytes that must be in the stream
	buffer before a task that is waiting for data is unblocked. */
	if( xTriggerLevel <= pxStreamBuffer->xLength )
 1002950:	e0bffd17 	ldw	r2,-12(fp)
 1002954:	10c00217 	ldw	r3,8(r2)
 1002958:	e0bfff17 	ldw	r2,-4(fp)
 100295c:	18800636 	bltu	r3,r2,1002978 <xStreamBufferSetTriggerLevel+0x54>
	{
		pxStreamBuffer->xTriggerLevelBytes = xTriggerLevel;
 1002960:	e0bffd17 	ldw	r2,-12(fp)
 1002964:	e0ffff17 	ldw	r3,-4(fp)
 1002968:	10c00315 	stw	r3,12(r2)
		xReturn = pdPASS;
 100296c:	00800044 	movi	r2,1
 1002970:	e0bffc15 	stw	r2,-16(fp)
 1002974:	00000106 	br	100297c <xStreamBufferSetTriggerLevel+0x58>
	}
	else
	{
		xReturn = pdFALSE;
 1002978:	e03ffc15 	stw	zero,-16(fp)
	}

	return xReturn;
 100297c:	e0bffc17 	ldw	r2,-16(fp)
}
 1002980:	e037883a 	mov	sp,fp
 1002984:	df000017 	ldw	fp,0(sp)
 1002988:	dec00104 	addi	sp,sp,4
 100298c:	f800283a 	ret

01002990 <xStreamBufferSpacesAvailable>:
/*-----------------------------------------------------------*/

size_t xStreamBufferSpacesAvailable( StreamBufferHandle_t xStreamBuffer )
{
 1002990:	defffc04 	addi	sp,sp,-16
 1002994:	df000315 	stw	fp,12(sp)
 1002998:	df000304 	addi	fp,sp,12
 100299c:	e13fff15 	stw	r4,-4(fp)
const StreamBuffer_t * const pxStreamBuffer = xStreamBuffer;
 10029a0:	e0bfff17 	ldw	r2,-4(fp)
 10029a4:	e0bffe15 	stw	r2,-8(fp)
size_t xSpace;

	configASSERT( pxStreamBuffer );

	xSpace = pxStreamBuffer->xLength + pxStreamBuffer->xTail;
 10029a8:	e0bffe17 	ldw	r2,-8(fp)
 10029ac:	10c00217 	ldw	r3,8(r2)
 10029b0:	e0bffe17 	ldw	r2,-8(fp)
 10029b4:	10800017 	ldw	r2,0(r2)
 10029b8:	1885883a 	add	r2,r3,r2
 10029bc:	e0bffd15 	stw	r2,-12(fp)
	xSpace -= pxStreamBuffer->xHead;
 10029c0:	e0bffe17 	ldw	r2,-8(fp)
 10029c4:	10800117 	ldw	r2,4(r2)
 10029c8:	e0fffd17 	ldw	r3,-12(fp)
 10029cc:	1885c83a 	sub	r2,r3,r2
 10029d0:	e0bffd15 	stw	r2,-12(fp)
	xSpace -= ( size_t ) 1;
 10029d4:	e0bffd17 	ldw	r2,-12(fp)
 10029d8:	10bfffc4 	addi	r2,r2,-1
 10029dc:	e0bffd15 	stw	r2,-12(fp)

	if( xSpace >= pxStreamBuffer->xLength )
 10029e0:	e0bffe17 	ldw	r2,-8(fp)
 10029e4:	10800217 	ldw	r2,8(r2)
 10029e8:	e0fffd17 	ldw	r3,-12(fp)
 10029ec:	18800536 	bltu	r3,r2,1002a04 <xStreamBufferSpacesAvailable+0x74>
	{
		xSpace -= pxStreamBuffer->xLength;
 10029f0:	e0bffe17 	ldw	r2,-8(fp)
 10029f4:	10800217 	ldw	r2,8(r2)
 10029f8:	e0fffd17 	ldw	r3,-12(fp)
 10029fc:	1885c83a 	sub	r2,r3,r2
 1002a00:	e0bffd15 	stw	r2,-12(fp)
	else
	{
		mtCOVERAGE_TEST_MARKER();
	}

	return xSpace;
 1002a04:	e0bffd17 	ldw	r2,-12(fp)
}
 1002a08:	e037883a 	mov	sp,fp
 1002a0c:	df000017 	ldw	fp,0(sp)
 1002a10:	dec00104 	addi	sp,sp,4
 1002a14:	f800283a 	ret

01002a18 <xStreamBufferBytesAvailable>:
/*-----------------------------------------------------------*/

size_t xStreamBufferBytesAvailable( StreamBufferHandle_t xStreamBuffer )
{
 1002a18:	defffb04 	addi	sp,sp,-20
 1002a1c:	dfc00415 	stw	ra,16(sp)
 1002a20:	df000315 	stw	fp,12(sp)
 1002a24:	df000304 	addi	fp,sp,12
 1002a28:	e13fff15 	stw	r4,-4(fp)
const StreamBuffer_t * const pxStreamBuffer = xStreamBuffer;
 1002a2c:	e0bfff17 	ldw	r2,-4(fp)
 1002a30:	e0bffd15 	stw	r2,-12(fp)
size_t xReturn;

	configASSERT( pxStreamBuffer );

	xReturn = prvBytesInBuffer( pxStreamBuffer );
 1002a34:	e13ffd17 	ldw	r4,-12(fp)
 1002a38:	10035280 	call	1003528 <prvBytesInBuffer>
 1002a3c:	e0bffe15 	stw	r2,-8(fp)
	return xReturn;
 1002a40:	e0bffe17 	ldw	r2,-8(fp)
}
 1002a44:	e037883a 	mov	sp,fp
 1002a48:	dfc00117 	ldw	ra,4(sp)
 1002a4c:	df000017 	ldw	fp,0(sp)
 1002a50:	dec00204 	addi	sp,sp,8
 1002a54:	f800283a 	ret

01002a58 <xStreamBufferSend>:

size_t xStreamBufferSend( StreamBufferHandle_t xStreamBuffer,
						  const void *pvTxData,
						  size_t xDataLengthBytes,
						  TickType_t xTicksToWait )
{
 1002a58:	defff304 	addi	sp,sp,-52
 1002a5c:	dfc00c15 	stw	ra,48(sp)
 1002a60:	df000b15 	stw	fp,44(sp)
 1002a64:	df000b04 	addi	fp,sp,44
 1002a68:	e13ffc15 	stw	r4,-16(fp)
 1002a6c:	e17ffd15 	stw	r5,-12(fp)
 1002a70:	e1bffe15 	stw	r6,-8(fp)
 1002a74:	e1ffff15 	stw	r7,-4(fp)
StreamBuffer_t * const pxStreamBuffer = xStreamBuffer;
 1002a78:	e0bffc17 	ldw	r2,-16(fp)
 1002a7c:	e0bff815 	stw	r2,-32(fp)
size_t xReturn, xSpace = 0;
 1002a80:	e03ff615 	stw	zero,-40(fp)
size_t xRequiredSpace = xDataLengthBytes;
 1002a84:	e0bffe17 	ldw	r2,-8(fp)
 1002a88:	e0bff715 	stw	r2,-36(fp)

	/* This send function is used to write to both message buffers and stream
	buffers.  If this is a message buffer then the space needed must be
	increased by the amount of bytes needed to store the length of the
	message. */
	if( ( pxStreamBuffer->ucFlags & sbFLAGS_IS_MESSAGE_BUFFER ) != ( uint8_t ) 0 )
 1002a8c:	e0bff817 	ldw	r2,-32(fp)
 1002a90:	10800703 	ldbu	r2,28(r2)
 1002a94:	10803fcc 	andi	r2,r2,255
 1002a98:	1080004c 	andi	r2,r2,1
 1002a9c:	10000326 	beq	r2,zero,1002aac <xStreamBufferSend+0x54>
	{
		xRequiredSpace += sbBYTES_TO_STORE_MESSAGE_LENGTH;
 1002aa0:	e0bff717 	ldw	r2,-36(fp)
 1002aa4:	10800104 	addi	r2,r2,4
 1002aa8:	e0bff715 	stw	r2,-36(fp)
	else
	{
		mtCOVERAGE_TEST_MARKER();
	}

	if( xTicksToWait != ( TickType_t ) 0 )
 1002aac:	e0bfff17 	ldw	r2,-4(fp)
 1002ab0:	10002226 	beq	r2,zero,1002b3c <xStreamBufferSend+0xe4>
	{
		vTaskSetTimeOutState( &xTimeOut );
 1002ab4:	e0bffa04 	addi	r2,fp,-24
 1002ab8:	1009883a 	mov	r4,r2
 1002abc:	1004a8c0 	call	1004a8c <vTaskSetTimeOutState>

		do
		{
			/* Wait until the required number of bytes are free in the message
			buffer. */
			taskENTER_CRITICAL();
 1002ac0:	10052700 	call	1005270 <vTaskEnterCritical>
			{
				xSpace = xStreamBufferSpacesAvailable( pxStreamBuffer );
 1002ac4:	e13ff817 	ldw	r4,-32(fp)
 1002ac8:	10029900 	call	1002990 <xStreamBufferSpacesAvailable>
 1002acc:	e0bff615 	stw	r2,-40(fp)

				if( xSpace < xRequiredSpace )
 1002ad0:	e0fff617 	ldw	r3,-40(fp)
 1002ad4:	e0bff717 	ldw	r2,-36(fp)
 1002ad8:	1880072e 	bgeu	r3,r2,1002af8 <xStreamBufferSend+0xa0>
				{
					/* Clear notification state as going to wait for space. */
					( void ) xTaskNotifyStateClear( NULL );
 1002adc:	0009883a 	mov	r4,zero
 1002ae0:	10059f40 	call	10059f4 <xTaskNotifyStateClear>

					/* Should only be one writer. */
					configASSERT( pxStreamBuffer->xTaskWaitingToSend == NULL );
					pxStreamBuffer->xTaskWaitingToSend = xTaskGetCurrentTaskHandle();
 1002ae4:	1004ecc0 	call	1004ecc <xTaskGetCurrentTaskHandle>
 1002ae8:	1007883a 	mov	r3,r2
 1002aec:	e0bff817 	ldw	r2,-32(fp)
 1002af0:	10c00515 	stw	r3,20(r2)
 1002af4:	00000206 	br	1002b00 <xStreamBufferSend+0xa8>
				}
				else
				{
					taskEXIT_CRITICAL();
 1002af8:	10052c40 	call	10052c4 <vTaskExitCritical>
					break;
 1002afc:	00000f06 	br	1002b3c <xStreamBufferSend+0xe4>
				}
			}
			taskEXIT_CRITICAL();
 1002b00:	10052c40 	call	10052c4 <vTaskExitCritical>

			traceBLOCKING_ON_STREAM_BUFFER_SEND( xStreamBuffer );
			( void ) xTaskNotifyWait( ( uint32_t ) 0, ( uint32_t ) 0, NULL, xTicksToWait );
 1002b04:	e0bfff17 	ldw	r2,-4(fp)
 1002b08:	100f883a 	mov	r7,r2
 1002b0c:	000d883a 	mov	r6,zero
 1002b10:	000b883a 	mov	r5,zero
 1002b14:	0009883a 	mov	r4,zero
 1002b18:	10054500 	call	1005450 <xTaskNotifyWait>
			pxStreamBuffer->xTaskWaitingToSend = NULL;
 1002b1c:	e0bff817 	ldw	r2,-32(fp)
 1002b20:	10000515 	stw	zero,20(r2)

		} while( xTaskCheckForTimeOut( &xTimeOut, &xTicksToWait ) == pdFALSE );
 1002b24:	e0ffff04 	addi	r3,fp,-4
 1002b28:	e0bffa04 	addi	r2,fp,-24
 1002b2c:	180b883a 	mov	r5,r3
 1002b30:	1009883a 	mov	r4,r2
 1002b34:	1004b140 	call	1004b14 <xTaskCheckForTimeOut>
 1002b38:	103fe126 	beq	r2,zero,1002ac0 <__alt_data_end+0xff002ac0>
	else
	{
		mtCOVERAGE_TEST_MARKER();
	}

	if( xSpace == ( size_t ) 0 )
 1002b3c:	e0bff617 	ldw	r2,-40(fp)
 1002b40:	1000031e 	bne	r2,zero,1002b50 <xStreamBufferSend+0xf8>
	{
		xSpace = xStreamBufferSpacesAvailable( pxStreamBuffer );
 1002b44:	e13ff817 	ldw	r4,-32(fp)
 1002b48:	10029900 	call	1002990 <xStreamBufferSpacesAvailable>
 1002b4c:	e0bff615 	stw	r2,-40(fp)
	else
	{
		mtCOVERAGE_TEST_MARKER();
	}

	xReturn = prvWriteMessageToBuffer( pxStreamBuffer, pvTxData, xDataLengthBytes, xSpace, xRequiredSpace );
 1002b50:	e0bff717 	ldw	r2,-36(fp)
 1002b54:	d8800015 	stw	r2,0(sp)
 1002b58:	e1fff617 	ldw	r7,-40(fp)
 1002b5c:	e1bffe17 	ldw	r6,-8(fp)
 1002b60:	e17ffd17 	ldw	r5,-12(fp)
 1002b64:	e13ff817 	ldw	r4,-32(fp)
 1002b68:	1002cd00 	call	1002cd0 <prvWriteMessageToBuffer>
 1002b6c:	e0bff915 	stw	r2,-28(fp)

	if( xReturn > ( size_t ) 0 )
 1002b70:	e0bff917 	ldw	r2,-28(fp)
 1002b74:	10001426 	beq	r2,zero,1002bc8 <xStreamBufferSend+0x170>
	{
		traceSTREAM_BUFFER_SEND( xStreamBuffer, xReturn );

		/* Was a task waiting for the data? */
		if( prvBytesInBuffer( pxStreamBuffer ) >= pxStreamBuffer->xTriggerLevelBytes )
 1002b78:	e13ff817 	ldw	r4,-32(fp)
 1002b7c:	10035280 	call	1003528 <prvBytesInBuffer>
 1002b80:	1007883a 	mov	r3,r2
 1002b84:	e0bff817 	ldw	r2,-32(fp)
 1002b88:	10800317 	ldw	r2,12(r2)
 1002b8c:	18800e36 	bltu	r3,r2,1002bc8 <xStreamBufferSend+0x170>
		{
			sbSEND_COMPLETED( pxStreamBuffer );
 1002b90:	100435c0 	call	100435c <vTaskSuspendAll>
 1002b94:	e0bff817 	ldw	r2,-32(fp)
 1002b98:	10800417 	ldw	r2,16(r2)
 1002b9c:	10000926 	beq	r2,zero,1002bc4 <xStreamBufferSend+0x16c>
 1002ba0:	e0bff817 	ldw	r2,-32(fp)
 1002ba4:	10800417 	ldw	r2,16(r2)
 1002ba8:	000f883a 	mov	r7,zero
 1002bac:	000d883a 	mov	r6,zero
 1002bb0:	000b883a 	mov	r5,zero
 1002bb4:	1009883a 	mov	r4,r2
 1002bb8:	10055440 	call	1005544 <xTaskGenericNotify>
 1002bbc:	e0bff817 	ldw	r2,-32(fp)
 1002bc0:	10000415 	stw	zero,16(r2)
 1002bc4:	10043880 	call	1004388 <xTaskResumeAll>
	{
		mtCOVERAGE_TEST_MARKER();
		traceSTREAM_BUFFER_SEND_FAILED( xStreamBuffer );
	}

	return xReturn;
 1002bc8:	e0bff917 	ldw	r2,-28(fp)
}
 1002bcc:	e037883a 	mov	sp,fp
 1002bd0:	dfc00117 	ldw	ra,4(sp)
 1002bd4:	df000017 	ldw	fp,0(sp)
 1002bd8:	dec00204 	addi	sp,sp,8
 1002bdc:	f800283a 	ret

01002be0 <xStreamBufferSendFromISR>:

size_t xStreamBufferSendFromISR( StreamBufferHandle_t xStreamBuffer,
								 const void *pvTxData,
								 size_t xDataLengthBytes,
								 BaseType_t * const pxHigherPriorityTaskWoken )
{
 1002be0:	defff404 	addi	sp,sp,-48
 1002be4:	dfc00b15 	stw	ra,44(sp)
 1002be8:	df000a15 	stw	fp,40(sp)
 1002bec:	df000a04 	addi	fp,sp,40
 1002bf0:	e13ffc15 	stw	r4,-16(fp)
 1002bf4:	e17ffd15 	stw	r5,-12(fp)
 1002bf8:	e1bffe15 	stw	r6,-8(fp)
 1002bfc:	e1ffff15 	stw	r7,-4(fp)
StreamBuffer_t * const pxStreamBuffer = xStreamBuffer;
 1002c00:	e0bffc17 	ldw	r2,-16(fp)
 1002c04:	e0bff815 	stw	r2,-32(fp)
size_t xReturn, xSpace;
size_t xRequiredSpace = xDataLengthBytes;
 1002c08:	e0bffe17 	ldw	r2,-8(fp)
 1002c0c:	e0bff715 	stw	r2,-36(fp)

	/* This send function is used to write to both message buffers and stream
	buffers.  If this is a message buffer then the space needed must be
	increased by the amount of bytes needed to store the length of the
	message. */
	if( ( pxStreamBuffer->ucFlags & sbFLAGS_IS_MESSAGE_BUFFER ) != ( uint8_t ) 0 )
 1002c10:	e0bff817 	ldw	r2,-32(fp)
 1002c14:	10800703 	ldbu	r2,28(r2)
 1002c18:	10803fcc 	andi	r2,r2,255
 1002c1c:	1080004c 	andi	r2,r2,1
 1002c20:	10000326 	beq	r2,zero,1002c30 <xStreamBufferSendFromISR+0x50>
	{
		xRequiredSpace += sbBYTES_TO_STORE_MESSAGE_LENGTH;
 1002c24:	e0bff717 	ldw	r2,-36(fp)
 1002c28:	10800104 	addi	r2,r2,4
 1002c2c:	e0bff715 	stw	r2,-36(fp)
	else
	{
		mtCOVERAGE_TEST_MARKER();
	}

	xSpace = xStreamBufferSpacesAvailable( pxStreamBuffer );
 1002c30:	e13ff817 	ldw	r4,-32(fp)
 1002c34:	10029900 	call	1002990 <xStreamBufferSpacesAvailable>
 1002c38:	e0bff915 	stw	r2,-28(fp)
	xReturn = prvWriteMessageToBuffer( pxStreamBuffer, pvTxData, xDataLengthBytes, xSpace, xRequiredSpace );
 1002c3c:	e0bff717 	ldw	r2,-36(fp)
 1002c40:	d8800015 	stw	r2,0(sp)
 1002c44:	e1fff917 	ldw	r7,-28(fp)
 1002c48:	e1bffe17 	ldw	r6,-8(fp)
 1002c4c:	e17ffd17 	ldw	r5,-12(fp)
 1002c50:	e13ff817 	ldw	r4,-32(fp)
 1002c54:	1002cd00 	call	1002cd0 <prvWriteMessageToBuffer>
 1002c58:	e0bffa15 	stw	r2,-24(fp)

	if( xReturn > ( size_t ) 0 )
 1002c5c:	e0bffa17 	ldw	r2,-24(fp)
 1002c60:	10001526 	beq	r2,zero,1002cb8 <xStreamBufferSendFromISR+0xd8>
	{
		/* Was a task waiting for the data? */
		if( prvBytesInBuffer( pxStreamBuffer ) >= pxStreamBuffer->xTriggerLevelBytes )
 1002c64:	e13ff817 	ldw	r4,-32(fp)
 1002c68:	10035280 	call	1003528 <prvBytesInBuffer>
 1002c6c:	1007883a 	mov	r3,r2
 1002c70:	e0bff817 	ldw	r2,-32(fp)
 1002c74:	10800317 	ldw	r2,12(r2)
 1002c78:	18800f36 	bltu	r3,r2,1002cb8 <xStreamBufferSendFromISR+0xd8>
		{
			sbSEND_COMPLETE_FROM_ISR( pxStreamBuffer, pxHigherPriorityTaskWoken );
 1002c7c:	e03ffb15 	stw	zero,-20(fp)
 1002c80:	e0bff817 	ldw	r2,-32(fp)
 1002c84:	10800417 	ldw	r2,16(r2)
 1002c88:	10000b26 	beq	r2,zero,1002cb8 <xStreamBufferSendFromISR+0xd8>
 1002c8c:	e0bff817 	ldw	r2,-32(fp)
 1002c90:	10c00417 	ldw	r3,16(r2)
 1002c94:	e0bfff17 	ldw	r2,-4(fp)
 1002c98:	d8800015 	stw	r2,0(sp)
 1002c9c:	000f883a 	mov	r7,zero
 1002ca0:	000d883a 	mov	r6,zero
 1002ca4:	000b883a 	mov	r5,zero
 1002ca8:	1809883a 	mov	r4,r3
 1002cac:	10056f00 	call	10056f0 <xTaskGenericNotifyFromISR>
 1002cb0:	e0bff817 	ldw	r2,-32(fp)
 1002cb4:	10000415 	stw	zero,16(r2)
		mtCOVERAGE_TEST_MARKER();
	}

	traceSTREAM_BUFFER_SEND_FROM_ISR( xStreamBuffer, xReturn );

	return xReturn;
 1002cb8:	e0bffa17 	ldw	r2,-24(fp)
}
 1002cbc:	e037883a 	mov	sp,fp
 1002cc0:	dfc00117 	ldw	ra,4(sp)
 1002cc4:	df000017 	ldw	fp,0(sp)
 1002cc8:	dec00204 	addi	sp,sp,8
 1002ccc:	f800283a 	ret

01002cd0 <prvWriteMessageToBuffer>:
static size_t prvWriteMessageToBuffer( StreamBuffer_t * const pxStreamBuffer,
									   const void * pvTxData,
									   size_t xDataLengthBytes,
									   size_t xSpace,
									   size_t xRequiredSpace )
{
 1002cd0:	defff804 	addi	sp,sp,-32
 1002cd4:	dfc00715 	stw	ra,28(sp)
 1002cd8:	df000615 	stw	fp,24(sp)
 1002cdc:	df000604 	addi	fp,sp,24
 1002ce0:	e13ffc15 	stw	r4,-16(fp)
 1002ce4:	e17ffd15 	stw	r5,-12(fp)
 1002ce8:	e1bffe15 	stw	r6,-8(fp)
 1002cec:	e1ffff15 	stw	r7,-4(fp)
	BaseType_t xShouldWrite;
	size_t xReturn;

	if( xSpace == ( size_t ) 0 )
 1002cf0:	e0bfff17 	ldw	r2,-4(fp)
 1002cf4:	1000021e 	bne	r2,zero,1002d00 <prvWriteMessageToBuffer+0x30>
	{
		/* Doesn't matter if this is a stream buffer or a message buffer, there
		is no space to write. */
		xShouldWrite = pdFALSE;
 1002cf8:	e03ffa15 	stw	zero,-24(fp)
 1002cfc:	00001906 	br	1002d64 <prvWriteMessageToBuffer+0x94>
	}
	else if( ( pxStreamBuffer->ucFlags & sbFLAGS_IS_MESSAGE_BUFFER ) == ( uint8_t ) 0 )
 1002d00:	e0bffc17 	ldw	r2,-16(fp)
 1002d04:	10800703 	ldbu	r2,28(r2)
 1002d08:	10803fcc 	andi	r2,r2,255
 1002d0c:	1080004c 	andi	r2,r2,1
 1002d10:	1000081e 	bne	r2,zero,1002d34 <prvWriteMessageToBuffer+0x64>
	{
		/* This is a stream buffer, as opposed to a message buffer, so writing a
		stream of bytes rather than discrete messages.  Write as many bytes as
		possible. */
		xShouldWrite = pdTRUE;
 1002d14:	00800044 	movi	r2,1
 1002d18:	e0bffa15 	stw	r2,-24(fp)
		xDataLengthBytes = configMIN( xDataLengthBytes, xSpace );
 1002d1c:	e0fffe17 	ldw	r3,-8(fp)
 1002d20:	e0bfff17 	ldw	r2,-4(fp)
 1002d24:	1880012e 	bgeu	r3,r2,1002d2c <prvWriteMessageToBuffer+0x5c>
 1002d28:	1805883a 	mov	r2,r3
 1002d2c:	e0bffe15 	stw	r2,-8(fp)
 1002d30:	00000c06 	br	1002d64 <prvWriteMessageToBuffer+0x94>
	}
	else if( xSpace >= xRequiredSpace )
 1002d34:	e0ffff17 	ldw	r3,-4(fp)
 1002d38:	e0800217 	ldw	r2,8(fp)
 1002d3c:	18800836 	bltu	r3,r2,1002d60 <prvWriteMessageToBuffer+0x90>
	{
		/* This is a message buffer, as opposed to a stream buffer, and there
		is enough space to write both the message length and the message itself
		into the buffer.  Start by writing the length of the data, the data
		itself will be written later in this function. */
		xShouldWrite = pdTRUE;
 1002d40:	00800044 	movi	r2,1
 1002d44:	e0bffa15 	stw	r2,-24(fp)
		( void ) prvWriteBytesToBuffer( pxStreamBuffer, ( const uint8_t * ) &( xDataLengthBytes ), sbBYTES_TO_STORE_MESSAGE_LENGTH );
 1002d48:	e0bffe04 	addi	r2,fp,-8
 1002d4c:	01800104 	movi	r6,4
 1002d50:	100b883a 	mov	r5,r2
 1002d54:	e13ffc17 	ldw	r4,-16(fp)
 1002d58:	10033200 	call	1003320 <prvWriteBytesToBuffer>
 1002d5c:	00000106 	br	1002d64 <prvWriteMessageToBuffer+0x94>
	}
	else
	{
		/* There is space available, but not enough space. */
		xShouldWrite = pdFALSE;
 1002d60:	e03ffa15 	stw	zero,-24(fp)
	}

	if( xShouldWrite != pdFALSE )
 1002d64:	e0bffa17 	ldw	r2,-24(fp)
 1002d68:	10000726 	beq	r2,zero,1002d88 <prvWriteMessageToBuffer+0xb8>
	{
		/* Writes the data itself. */
		xReturn = prvWriteBytesToBuffer( pxStreamBuffer, ( const uint8_t * ) pvTxData, xDataLengthBytes ); /*lint !e9079 Storage buffer is implemented as uint8_t for ease of sizing, alighment and access. */
 1002d6c:	e0bffe17 	ldw	r2,-8(fp)
 1002d70:	100d883a 	mov	r6,r2
 1002d74:	e17ffd17 	ldw	r5,-12(fp)
 1002d78:	e13ffc17 	ldw	r4,-16(fp)
 1002d7c:	10033200 	call	1003320 <prvWriteBytesToBuffer>
 1002d80:	e0bffb15 	stw	r2,-20(fp)
 1002d84:	00000106 	br	1002d8c <prvWriteMessageToBuffer+0xbc>
	}
	else
	{
		xReturn = 0;
 1002d88:	e03ffb15 	stw	zero,-20(fp)
	}

	return xReturn;
 1002d8c:	e0bffb17 	ldw	r2,-20(fp)
}
 1002d90:	e037883a 	mov	sp,fp
 1002d94:	dfc00117 	ldw	ra,4(sp)
 1002d98:	df000017 	ldw	fp,0(sp)
 1002d9c:	dec00204 	addi	sp,sp,8
 1002da0:	f800283a 	ret

01002da4 <xStreamBufferReceive>:

size_t xStreamBufferReceive( StreamBufferHandle_t xStreamBuffer,
							 void *pvRxData,
							 size_t xBufferLengthBytes,
							 TickType_t xTicksToWait )
{
 1002da4:	defff504 	addi	sp,sp,-44
 1002da8:	dfc00a15 	stw	ra,40(sp)
 1002dac:	df000915 	stw	fp,36(sp)
 1002db0:	df000904 	addi	fp,sp,36
 1002db4:	e13ffc15 	stw	r4,-16(fp)
 1002db8:	e17ffd15 	stw	r5,-12(fp)
 1002dbc:	e1bffe15 	stw	r6,-8(fp)
 1002dc0:	e1ffff15 	stw	r7,-4(fp)
